                              1 ;--------------------------------------------------------
                              2 ; File Created by SDCC : free open source ANSI-C Compiler
                              3 ; Version 3.6.8 #9946 (Mac OS X ppc)
                              4 ;--------------------------------------------------------
                              5 	.module game
                              6 	.optsdcc -mz80
                              7 	
                              8 ;--------------------------------------------------------
                              9 ; Public variables in this module
                             10 ;--------------------------------------------------------
                             11 	.globl _hudrender
                             12 	.globl _hudupdate
                             13 	.globl _hudinit
                             14 	.globl _projectilerender
                             15 	.globl _projectileupdate
                             16 	.globl _projectilefire
                             17 	.globl _projectileinit
                             18 	.globl _enemydamage
                             19 	.globl _enemyrender
                             20 	.globl _enemyupdate
                             21 	.globl _enemyspawn
                             22 	.globl _enemyinit
                             23 	.globl _playerrender
                             24 	.globl _playerupdate
                             25 	.globl _playerinit
                             26 	.globl _collision_is_on_trap
                             27 	.globl _collision_init
                             28 	.globl _input_is_shoot_just_pressed
                             29 	.globl _input_update
                             30 	.globl _tilemap_goal_x
                             31 	.globl _tilemap_ground_y
                             32 	.globl _tilemap_render
                             33 	.globl _tilemap_init
                             34 	.globl _cpct_getScreenPtr
                             35 	.globl _cpct_setPALColour
                             36 	.globl _cpct_setPalette
                             37 	.globl _cpct_setVideoMode
                             38 	.globl _cpct_drawSolidBox
                             39 	.globl _cpct_memset
                             40 	.globl _cpct_disableFirmware
                             41 	.globl _game_init
                             42 	.globl _game_update
                             43 	.globl _game_render
                             44 ;--------------------------------------------------------
                             45 ; special function registers
                             46 ;--------------------------------------------------------
                             47 ;--------------------------------------------------------
                             48 ; ram data
                             49 ;--------------------------------------------------------
                             50 	.area _DATA
   0000                      51 _g_player:
   0000                      52 	.ds 9
   0009                      53 _g_enemies:
   0009                      54 	.ds 60
   0045                      55 _g_projectiles:
   0045                      56 	.ds 60
   0081                      57 _g_lives:
   0081                      58 	.ds 1
   0082                      59 _g_score:
   0082                      60 	.ds 2
   0084                      61 _g_timeleft:
   0084                      62 	.ds 1
   0085                      63 _g_weapondisplay:
   0085                      64 	.ds 1
   0086                      65 _g_currentwave:
   0086                      66 	.ds 1
   0087                      67 _g_aliveenemies:
   0087                      68 	.ds 1
   0088                      69 _g_wavecooldown:
   0088                      70 	.ds 1
   0089                      71 _g_damagecooldown:
   0089                      72 	.ds 1
   008A                      73 _g_shootcooldown:
   008A                      74 	.ds 1
   008B                      75 _g_victory:
   008B                      76 	.ds 1
   008C                      77 _g_gameover:
   008C                      78 	.ds 1
   008D                      79 _g_framecounter:
   008D                      80 	.ds 2
   008F                      81 _g_checkpointx:
   008F                      82 	.ds 1
   0090                      83 _g_checkpointy:
   0090                      84 	.ds 1
   0091                      85 _g_checkpointactive:
   0091                      86 	.ds 1
   0092                      87 _g_boss:
   0092                      88 	.ds 10
   009C                      89 _g_bossactive:
   009C                      90 	.ds 1
   009D                      91 _g_bossphase:
   009D                      92 	.ds 1
   009E                      93 _g_weaponlevel:
   009E                      94 	.ds 1
   009F                      95 _g_pickuptaken:
   009F                      96 	.ds 1
                             97 ;--------------------------------------------------------
                             98 ; ram data
                             99 ;--------------------------------------------------------
                            100 	.area _INITIALIZED
                            101 ;--------------------------------------------------------
                            102 ; absolute external ram data
                            103 ;--------------------------------------------------------
                            104 	.area _DABS (ABS)
                            105 ;--------------------------------------------------------
                            106 ; global & static initialisations
                            107 ;--------------------------------------------------------
                            108 	.area _HOME
                            109 	.area _GSINIT
                            110 	.area _GSFINAL
                            111 	.area _GSINIT
                            112 ;--------------------------------------------------------
                            113 ; Home
                            114 ;--------------------------------------------------------
                            115 	.area _HOME
                            116 	.area _HOME
                            117 ;--------------------------------------------------------
                            118 ; code
                            119 ;--------------------------------------------------------
                            120 	.area _CODE
                            121 ;src/game.c:41: static void reset_player_to_checkpoint(void) {
                            122 ;	---------------------------------
                            123 ; Function reset_player_to_checkpoint
                            124 ; ---------------------------------
   0000                     125 _reset_player_to_checkpoint:
                            126 ;src/game.c:42: g_player.x = g_checkpointx;
   0000 21r00r00      [10]  127 	ld	hl, #_g_player
   0003 3Ar8Fr00      [13]  128 	ld	a,(#_g_checkpointx + 0)
   0006 77            [ 7]  129 	ld	(hl), a
                            130 ;src/game.c:43: g_player.y = g_checkpointy;
   0007 21r01r00      [10]  131 	ld	hl, #(_g_player + 0x0001)
   000A 3Ar90r00      [13]  132 	ld	a,(#_g_checkpointy + 0)
   000D 77            [ 7]  133 	ld	(hl), a
                            134 ;src/game.c:44: g_player.vx = 0;
   000E 21r02r00      [10]  135 	ld	hl, #(_g_player + 0x0002)
   0011 36 00         [10]  136 	ld	(hl), #0x00
                            137 ;src/game.c:45: g_player.vy = 0;
   0013 21r03r00      [10]  138 	ld	hl, #(_g_player + 0x0003)
   0016 36 00         [10]  139 	ld	(hl), #0x00
   0018 C9            [10]  140 	ret
                            141 ;src/game.c:48: static u8 rect_overlap(i16 ax, i16 ay, u8 aw, u8 ah, i16 bx, i16 by, u8 bw, u8 bh) {
                            142 ;	---------------------------------
                            143 ; Function rect_overlap
                            144 ; ---------------------------------
   0019                     145 _rect_overlap:
   0019 DD E5         [15]  146 	push	ix
   001B DD 21 00 00   [14]  147 	ld	ix,#0
   001F DD 39         [15]  148 	add	ix,sp
                            149 ;src/game.c:49: if (ax + aw <= bx) return 0;
   0021 DD 4E 08      [19]  150 	ld	c, 8 (ix)
   0024 06 00         [ 7]  151 	ld	b, #0x00
   0026 DD 6E 04      [19]  152 	ld	l,4 (ix)
   0029 DD 66 05      [19]  153 	ld	h,5 (ix)
   002C 09            [11]  154 	add	hl, bc
   002D DD 7E 0A      [19]  155 	ld	a, 10 (ix)
   0030 95            [ 4]  156 	sub	a, l
   0031 DD 7E 0B      [19]  157 	ld	a, 11 (ix)
   0034 9C            [ 4]  158 	sbc	a, h
   0035 E2r3Ar00      [10]  159 	jp	PO, 00127$
   0038 EE 80         [ 7]  160 	xor	a, #0x80
   003A                     161 00127$:
   003A FAr41r00      [10]  162 	jp	M, 00102$
   003D 2E 00         [ 7]  163 	ld	l, #0x00
   003F 18 62         [12]  164 	jr	00109$
   0041                     165 00102$:
                            166 ;src/game.c:50: if (bx + bw <= ax) return 0;
   0041 DD 4E 0E      [19]  167 	ld	c, 14 (ix)
   0044 06 00         [ 7]  168 	ld	b, #0x00
   0046 DD 6E 0A      [19]  169 	ld	l,10 (ix)
   0049 DD 66 0B      [19]  170 	ld	h,11 (ix)
   004C 09            [11]  171 	add	hl, bc
   004D DD 7E 04      [19]  172 	ld	a, 4 (ix)
   0050 95            [ 4]  173 	sub	a, l
   0051 DD 7E 05      [19]  174 	ld	a, 5 (ix)
   0054 9C            [ 4]  175 	sbc	a, h
   0055 E2r5Ar00      [10]  176 	jp	PO, 00128$
   0058 EE 80         [ 7]  177 	xor	a, #0x80
   005A                     178 00128$:
   005A FAr61r00      [10]  179 	jp	M, 00104$
   005D 2E 00         [ 7]  180 	ld	l, #0x00
   005F 18 42         [12]  181 	jr	00109$
   0061                     182 00104$:
                            183 ;src/game.c:51: if (ay + ah <= by) return 0;
   0061 DD 4E 09      [19]  184 	ld	c, 9 (ix)
   0064 06 00         [ 7]  185 	ld	b, #0x00
   0066 DD 6E 06      [19]  186 	ld	l,6 (ix)
   0069 DD 66 07      [19]  187 	ld	h,7 (ix)
   006C 09            [11]  188 	add	hl, bc
   006D DD 7E 0C      [19]  189 	ld	a, 12 (ix)
   0070 95            [ 4]  190 	sub	a, l
   0071 DD 7E 0D      [19]  191 	ld	a, 13 (ix)
   0074 9C            [ 4]  192 	sbc	a, h
   0075 E2r7Ar00      [10]  193 	jp	PO, 00129$
   0078 EE 80         [ 7]  194 	xor	a, #0x80
   007A                     195 00129$:
   007A FAr81r00      [10]  196 	jp	M, 00106$
   007D 2E 00         [ 7]  197 	ld	l, #0x00
   007F 18 22         [12]  198 	jr	00109$
   0081                     199 00106$:
                            200 ;src/game.c:52: if (by + bh <= ay) return 0;
   0081 DD 4E 0F      [19]  201 	ld	c, 15 (ix)
   0084 06 00         [ 7]  202 	ld	b, #0x00
   0086 DD 6E 0C      [19]  203 	ld	l,12 (ix)
   0089 DD 66 0D      [19]  204 	ld	h,13 (ix)
   008C 09            [11]  205 	add	hl, bc
   008D DD 7E 06      [19]  206 	ld	a, 6 (ix)
   0090 95            [ 4]  207 	sub	a, l
   0091 DD 7E 07      [19]  208 	ld	a, 7 (ix)
   0094 9C            [ 4]  209 	sbc	a, h
   0095 E2r9Ar00      [10]  210 	jp	PO, 00130$
   0098 EE 80         [ 7]  211 	xor	a, #0x80
   009A                     212 00130$:
   009A FArA1r00      [10]  213 	jp	M, 00108$
   009D 2E 00         [ 7]  214 	ld	l, #0x00
   009F 18 02         [12]  215 	jr	00109$
   00A1                     216 00108$:
                            217 ;src/game.c:53: return 1;
   00A1 2E 01         [ 7]  218 	ld	l, #0x01
   00A3                     219 00109$:
   00A3 DD E1         [14]  220 	pop	ix
   00A5 C9            [10]  221 	ret
                            222 ;src/game.c:56: static void spawn_wave(u8 wave) {
                            223 ;	---------------------------------
                            224 ; Function spawn_wave
                            225 ; ---------------------------------
   00A6                     226 _spawn_wave:
   00A6 DD E5         [15]  227 	push	ix
   00A8 DD 21 00 00   [14]  228 	ld	ix,#0
   00AC DD 39         [15]  229 	add	ix,sp
   00AE F5            [11]  230 	push	af
   00AF F5            [11]  231 	push	af
   00B0 3B            [ 6]  232 	dec	sp
                            233 ;src/game.c:60: for (i = 0; i < MAX_ENEMIES; ++i) {
   00B1 01r09r00      [10]  234 	ld	bc, #_g_enemies+0
   00B4 1E 00         [ 7]  235 	ld	e, #0x00
   00B6                     236 00117$:
                            237 ;src/game.c:61: enemyinit(&g_enemies[i]);
   00B6 D5            [11]  238 	push	de
   00B7 16 00         [ 7]  239 	ld	d,#0x00
   00B9 6B            [ 4]  240 	ld	l, e
   00BA 62            [ 4]  241 	ld	h, d
   00BB 29            [11]  242 	add	hl, hl
   00BC 29            [11]  243 	add	hl, hl
   00BD 19            [11]  244 	add	hl, de
   00BE 29            [11]  245 	add	hl, hl
   00BF D1            [10]  246 	pop	de
   00C0 09            [11]  247 	add	hl, bc
   00C1 C5            [11]  248 	push	bc
   00C2 D5            [11]  249 	push	de
   00C3 E5            [11]  250 	push	hl
   00C4 CDr00r00      [17]  251 	call	_enemyinit
   00C7 F1            [10]  252 	pop	af
   00C8 D1            [10]  253 	pop	de
   00C9 C1            [10]  254 	pop	bc
                            255 ;src/game.c:60: for (i = 0; i < MAX_ENEMIES; ++i) {
   00CA 1C            [ 4]  256 	inc	e
   00CB 7B            [ 4]  257 	ld	a, e
   00CC D6 06         [ 7]  258 	sub	a, #0x06
   00CE 38 E6         [12]  259 	jr	C,00117$
                            260 ;src/game.c:65: else if (wave == 1) count = 3;
   00D0 DD 7E 04      [19]  261 	ld	a, 4 (ix)
   00D3 3D            [ 4]  262 	dec	a
   00D4 20 04         [12]  263 	jr	NZ,00190$
   00D6 3E 01         [ 7]  264 	ld	a,#0x01
   00D8 18 01         [12]  265 	jr	00191$
   00DA                     266 00190$:
   00DA AF            [ 4]  267 	xor	a,a
   00DB                     268 00191$:
   00DB 5F            [ 4]  269 	ld	e, a
                            270 ;src/game.c:64: if (wave == 0) count = 2;
   00DC DD 7E 04      [19]  271 	ld	a, 4 (ix)
   00DF B7            [ 4]  272 	or	a, a
   00E0 20 06         [12]  273 	jr	NZ,00106$
   00E2 DD 36 FB 02   [19]  274 	ld	-5 (ix), #0x02
   00E6 18 0E         [12]  275 	jr	00107$
   00E8                     276 00106$:
                            277 ;src/game.c:65: else if (wave == 1) count = 3;
   00E8 7B            [ 4]  278 	ld	a, e
   00E9 B7            [ 4]  279 	or	a, a
   00EA 28 06         [12]  280 	jr	Z,00103$
   00EC DD 36 FB 03   [19]  281 	ld	-5 (ix), #0x03
   00F0 18 04         [12]  282 	jr	00107$
   00F2                     283 00103$:
                            284 ;src/game.c:66: else count = 4;
   00F2 DD 36 FB 04   [19]  285 	ld	-5 (ix), #0x04
   00F6                     286 00107$:
                            287 ;src/game.c:68: if (count > MAX_ENEMIES) count = MAX_ENEMIES;
   00F6 3E 06         [ 7]  288 	ld	a, #0x06
   00F8 DD 96 FB      [19]  289 	sub	a, -5 (ix)
   00FB 30 04         [12]  290 	jr	NC,00148$
   00FD DD 36 FB 06   [19]  291 	ld	-5 (ix), #0x06
                            292 ;src/game.c:70: for (i = 0; i < count; ++i) {
   0101                     293 00148$:
   0101 DD 73 FF      [19]  294 	ld	-1 (ix), e
   0104 DD 36 FC 00   [19]  295 	ld	-4 (ix), #0x00
   0108                     296 00120$:
   0108 DD 7E FC      [19]  297 	ld	a, -4 (ix)
   010B DD 96 FB      [19]  298 	sub	a, -5 (ix)
   010E D2r9Br01      [10]  299 	jp	NC, 00116$
                            300 ;src/game.c:73: if (wave == 0) type = 0;
   0111 DD 7E 04      [19]  301 	ld	a, 4 (ix)
   0114 B7            [ 4]  302 	or	a,a
   0115 20 03         [12]  303 	jr	NZ,00114$
   0117 5F            [ 4]  304 	ld	e,a
   0118 18 27         [12]  305 	jr	00115$
   011A                     306 00114$:
                            307 ;src/game.c:74: else if (wave == 1) type = (u8)((i == 0) ? 1 : 0);
   011A DD 7E FF      [19]  308 	ld	a, -1 (ix)
   011D B7            [ 4]  309 	or	a, a
   011E 28 0E         [12]  310 	jr	Z,00111$
   0120 DD 7E FC      [19]  311 	ld	a, -4 (ix)
   0123 B7            [ 4]  312 	or	a, a
   0124 20 04         [12]  313 	jr	NZ,00124$
   0126 1E 01         [ 7]  314 	ld	e, #0x01
   0128 18 17         [12]  315 	jr	00115$
   012A                     316 00124$:
   012A 1E 00         [ 7]  317 	ld	e, #0x00
   012C 18 13         [12]  318 	jr	00115$
   012E                     319 00111$:
                            320 ;src/game.c:75: else type = (u8)((i == 0 || i == 3) ? 2 : 1);
   012E DD 7E FC      [19]  321 	ld	a, -4 (ix)
   0131 B7            [ 4]  322 	or	a, a
   0132 28 07         [12]  323 	jr	Z,00129$
   0134 DD 7E FC      [19]  324 	ld	a, -4 (ix)
   0137 D6 03         [ 7]  325 	sub	a, #0x03
   0139 20 04         [12]  326 	jr	NZ,00126$
   013B                     327 00129$:
   013B 1E 02         [ 7]  328 	ld	e, #0x02
   013D 18 02         [12]  329 	jr	00127$
   013F                     330 00126$:
   013F 1E 01         [ 7]  331 	ld	e, #0x01
   0141                     332 00127$:
   0141                     333 00115$:
                            334 ;src/game.c:77: spawn_y = (type == 2) ? 84 : 112;
   0141 7B            [ 4]  335 	ld	a, e
   0142 D6 02         [ 7]  336 	sub	a, #0x02
   0144 20 04         [12]  337 	jr	NZ,00131$
   0146 16 54         [ 7]  338 	ld	d, #0x54
   0148 18 02         [12]  339 	jr	00132$
   014A                     340 00131$:
   014A 16 70         [ 7]  341 	ld	d, #0x70
   014C                     342 00132$:
                            343 ;src/game.c:78: enemyspawn(&g_enemies[i], (u8)(46 + (i * 8)), spawn_y, type, (u8)((i & 1) ? 1 : 0));
   014C DD CB FC 46   [20]  344 	bit	0, -4 (ix)
   0150 28 06         [12]  345 	jr	Z,00133$
   0152 DD 36 FE 01   [19]  346 	ld	-2 (ix), #0x01
   0156 18 04         [12]  347 	jr	00134$
   0158                     348 00133$:
   0158 DD 36 FE 00   [19]  349 	ld	-2 (ix), #0x00
   015C                     350 00134$:
   015C DD 7E FC      [19]  351 	ld	a, -4 (ix)
   015F 07            [ 4]  352 	rlca
   0160 07            [ 4]  353 	rlca
   0161 07            [ 4]  354 	rlca
   0162 E6 F8         [ 7]  355 	and	a, #0xf8
   0164 C6 2E         [ 7]  356 	add	a, #0x2e
   0166 DD 77 FD      [19]  357 	ld	-3 (ix), a
   0169 D5            [11]  358 	push	de
   016A DD 5E FC      [19]  359 	ld	e,-4 (ix)
   016D 16 00         [ 7]  360 	ld	d,#0x00
   016F 6B            [ 4]  361 	ld	l, e
   0170 62            [ 4]  362 	ld	h, d
   0171 29            [11]  363 	add	hl, hl
   0172 29            [11]  364 	add	hl, hl
   0173 19            [11]  365 	add	hl, de
   0174 29            [11]  366 	add	hl, hl
   0175 D1            [10]  367 	pop	de
   0176 09            [11]  368 	add	hl, bc
   0177 E5            [11]  369 	push	hl
   0178 FD E1         [14]  370 	pop	iy
   017A C5            [11]  371 	push	bc
   017B DD 7E FE      [19]  372 	ld	a, -2 (ix)
   017E F5            [11]  373 	push	af
   017F 33            [ 6]  374 	inc	sp
   0180 7B            [ 4]  375 	ld	a, e
   0181 F5            [11]  376 	push	af
   0182 33            [ 6]  377 	inc	sp
   0183 D5            [11]  378 	push	de
   0184 33            [ 6]  379 	inc	sp
   0185 DD 7E FD      [19]  380 	ld	a, -3 (ix)
   0188 F5            [11]  381 	push	af
   0189 33            [ 6]  382 	inc	sp
   018A FD E5         [15]  383 	push	iy
   018C CDr00r00      [17]  384 	call	_enemyspawn
   018F 21 06 00      [10]  385 	ld	hl, #6
   0192 39            [11]  386 	add	hl, sp
   0193 F9            [ 6]  387 	ld	sp, hl
   0194 C1            [10]  388 	pop	bc
                            389 ;src/game.c:70: for (i = 0; i < count; ++i) {
   0195 DD 34 FC      [23]  390 	inc	-4 (ix)
   0198 C3r08r01      [10]  391 	jp	00120$
   019B                     392 00116$:
                            393 ;src/game.c:81: g_aliveenemies = count;
   019B DD 7E FB      [19]  394 	ld	a, -5 (ix)
   019E 32r87r00      [13]  395 	ld	(#_g_aliveenemies + 0),a
   01A1 DD F9         [10]  396 	ld	sp, ix
   01A3 DD E1         [14]  397 	pop	ix
   01A5 C9            [10]  398 	ret
                            399 ;src/game.c:84: static void spawn_boss(void) {
                            400 ;	---------------------------------
                            401 ; Function spawn_boss
                            402 ; ---------------------------------
   01A6                     403 _spawn_boss:
                            404 ;src/game.c:85: enemyinit(&g_boss);
   01A6 21r92r00      [10]  405 	ld	hl, #_g_boss
   01A9 E5            [11]  406 	push	hl
   01AA CDr00r00      [17]  407 	call	_enemyinit
   01AD F1            [10]  408 	pop	af
                            409 ;src/game.c:86: enemyspawn(&g_boss, 68, 112, 1, 0);
   01AE 21 01 00      [10]  410 	ld	hl, #0x0001
   01B1 E5            [11]  411 	push	hl
   01B2 21 44 70      [10]  412 	ld	hl, #0x7044
   01B5 E5            [11]  413 	push	hl
   01B6 21r92r00      [10]  414 	ld	hl, #_g_boss
   01B9 E5            [11]  415 	push	hl
   01BA CDr00r00      [17]  416 	call	_enemyspawn
   01BD 21 06 00      [10]  417 	ld	hl, #6
   01C0 39            [11]  418 	add	hl, sp
   01C1 F9            [ 6]  419 	ld	sp, hl
                            420 ;src/game.c:87: g_boss.w = 10;
   01C2 21r96r00      [10]  421 	ld	hl, #(_g_boss + 0x0004)
   01C5 36 0A         [10]  422 	ld	(hl), #0x0a
                            423 ;src/game.c:88: g_boss.h = 18;
   01C7 21r97r00      [10]  424 	ld	hl, #(_g_boss + 0x0005)
   01CA 36 12         [10]  425 	ld	(hl), #0x12
                            426 ;src/game.c:89: g_boss.health = 10;
   01CC 21r99r00      [10]  427 	ld	hl, #(_g_boss + 0x0007)
   01CF 36 0A         [10]  428 	ld	(hl), #0x0a
                            429 ;src/game.c:90: g_boss.reward = 1500;
   01D1 21r9Ar00      [10]  430 	ld	hl, #(_g_boss + 0x0008)
   01D4 36 DC         [10]  431 	ld	(hl), #0xdc
                            432 ;src/game.c:91: g_boss.kind = 3;
   01D6 21r9Br00      [10]  433 	ld	hl, #(_g_boss + 0x0009)
   01D9 36 03         [10]  434 	ld	(hl), #0x03
                            435 ;src/game.c:92: g_boss.vx = -1;
   01DB 21r94r00      [10]  436 	ld	hl, #(_g_boss + 0x0002)
   01DE 36 FF         [10]  437 	ld	(hl), #0xff
                            438 ;src/game.c:93: g_bossactive = 1;
   01E0 21r9Cr00      [10]  439 	ld	hl,#_g_bossactive + 0
   01E3 36 01         [10]  440 	ld	(hl), #0x01
                            441 ;src/game.c:94: g_bossphase = 0;
   01E5 21r9Dr00      [10]  442 	ld	hl,#_g_bossphase + 0
   01E8 36 00         [10]  443 	ld	(hl), #0x00
   01EA C9            [10]  444 	ret
                            445 ;src/game.c:97: static void try_fire_projectile(void) {
                            446 ;	---------------------------------
                            447 ; Function try_fire_projectile
                            448 ; ---------------------------------
   01EB                     449 _try_fire_projectile:
   01EB DD E5         [15]  450 	push	ix
   01ED DD 21 00 00   [14]  451 	ld	ix,#0
   01F1 DD 39         [15]  452 	add	ix,sp
   01F3 F5            [11]  453 	push	af
   01F4 3B            [ 6]  454 	dec	sp
                            455 ;src/game.c:101: if (!input_is_shoot_just_pressed()) return;
   01F5 CDr00r00      [17]  456 	call	_input_is_shoot_just_pressed
   01F8 7D            [ 4]  457 	ld	a, l
   01F9 B7            [ 4]  458 	or	a, a
   01FA CAr8Cr02      [10]  459 	jp	Z,00110$
                            460 ;src/game.c:102: if (g_shootcooldown) return;
   01FD 3Ar8Ar00      [13]  461 	ld	a,(#_g_shootcooldown + 0)
   0200 B7            [ 4]  462 	or	a, a
   0201 C2r8Cr02      [10]  463 	jp	NZ,00110$
                            464 ;src/game.c:104: dir = g_player.facing_left ? -3 : 3;
   0204 3Ar07r00      [13]  465 	ld	a, (#_g_player + 7)
   0207 B7            [ 4]  466 	or	a, a
   0208 28 04         [12]  467 	jr	Z,00112$
   020A 0E FD         [ 7]  468 	ld	c, #0xfd
   020C 18 02         [12]  469 	jr	00113$
   020E                     470 00112$:
   020E 0E 03         [ 7]  471 	ld	c, #0x03
   0210                     472 00113$:
                            473 ;src/game.c:106: for (i = 0; i < MAX_PROJECTILES; ++i) {
   0210 DD 36 FF 00   [19]  474 	ld	-1 (ix), #0x00
   0214 06 00         [ 7]  475 	ld	b, #0x00
   0216                     476 00108$:
                            477 ;src/game.c:107: if (!g_projectiles[i].active) {
   0216 58            [ 4]  478 	ld	e,b
   0217 16 00         [ 7]  479 	ld	d,#0x00
   0219 6B            [ 4]  480 	ld	l, e
   021A 62            [ 4]  481 	ld	h, d
   021B 29            [11]  482 	add	hl, hl
   021C 29            [11]  483 	add	hl, hl
   021D 19            [11]  484 	add	hl, de
   021E 29            [11]  485 	add	hl, hl
   021F 11r45r00      [10]  486 	ld	de, #_g_projectiles
   0222 19            [11]  487 	add	hl, de
   0223 11 06 00      [10]  488 	ld	de, #0x0006
   0226 19            [11]  489 	add	hl, de
   0227 7E            [ 7]  490 	ld	a, (hl)
   0228 B7            [ 4]  491 	or	a, a
   0229 20 58         [12]  492 	jr	NZ,00109$
                            493 ;src/game.c:109: projectilefire(&g_projectiles[i], (u8)(g_player.x + 2), (u8)(g_player.y + 6), dir, g_weaponlevel > 0 ? 1 : 0);
   022B 3Ar9Er00      [13]  494 	ld	a,(#_g_weaponlevel + 0)
   022E B7            [ 4]  495 	or	a, a
   022F 28 06         [12]  496 	jr	Z,00114$
   0231 DD 36 FE 01   [19]  497 	ld	-2 (ix), #0x01
   0235 18 04         [12]  498 	jr	00115$
   0237                     499 00114$:
   0237 DD 36 FE 00   [19]  500 	ld	-2 (ix), #0x00
   023B                     501 00115$:
   023B 3Ar01r00      [13]  502 	ld	a, (#_g_player + 1)
   023E C6 06         [ 7]  503 	add	a, #0x06
   0240 DD 77 FD      [19]  504 	ld	-3 (ix), a
   0243 21r00r00      [10]  505 	ld	hl, #_g_player + 0
   0246 46            [ 7]  506 	ld	b, (hl)
   0247 04            [ 4]  507 	inc	b
   0248 04            [ 4]  508 	inc	b
   0249 DD 5E FF      [19]  509 	ld	e,-1 (ix)
   024C 16 00         [ 7]  510 	ld	d,#0x00
   024E 6B            [ 4]  511 	ld	l, e
   024F 62            [ 4]  512 	ld	h, d
   0250 29            [11]  513 	add	hl, hl
   0251 29            [11]  514 	add	hl, hl
   0252 19            [11]  515 	add	hl, de
   0253 29            [11]  516 	add	hl, hl
   0254 11r45r00      [10]  517 	ld	de, #_g_projectiles
   0257 19            [11]  518 	add	hl, de
   0258 EB            [ 4]  519 	ex	de,hl
   0259 DD 7E FE      [19]  520 	ld	a, -2 (ix)
   025C F5            [11]  521 	push	af
   025D 33            [ 6]  522 	inc	sp
   025E 79            [ 4]  523 	ld	a, c
   025F F5            [11]  524 	push	af
   0260 33            [ 6]  525 	inc	sp
   0261 DD 7E FD      [19]  526 	ld	a, -3 (ix)
   0264 F5            [11]  527 	push	af
   0265 33            [ 6]  528 	inc	sp
   0266 C5            [11]  529 	push	bc
   0267 33            [ 6]  530 	inc	sp
   0268 D5            [11]  531 	push	de
   0269 CDr00r00      [17]  532 	call	_projectilefire
   026C 21 06 00      [10]  533 	ld	hl, #6
   026F 39            [11]  534 	add	hl, sp
   0270 F9            [ 6]  535 	ld	sp, hl
                            536 ;src/game.c:110: g_shootcooldown = g_weaponlevel > 0 ? 4 : 8;
   0271 3Ar9Er00      [13]  537 	ld	a,(#_g_weaponlevel + 0)
   0274 B7            [ 4]  538 	or	a, a
   0275 28 04         [12]  539 	jr	Z,00116$
   0277 0E 04         [ 7]  540 	ld	c, #0x04
   0279 18 02         [12]  541 	jr	00117$
   027B                     542 00116$:
   027B 0E 08         [ 7]  543 	ld	c, #0x08
   027D                     544 00117$:
   027D 21r8Ar00      [10]  545 	ld	hl,#_g_shootcooldown + 0
   0280 71            [ 7]  546 	ld	(hl), c
                            547 ;src/game.c:111: break;
   0281 18 09         [12]  548 	jr	00110$
   0283                     549 00109$:
                            550 ;src/game.c:106: for (i = 0; i < MAX_PROJECTILES; ++i) {
   0283 04            [ 4]  551 	inc	b
   0284 DD 70 FF      [19]  552 	ld	-1 (ix), b
   0287 78            [ 4]  553 	ld	a, b
   0288 D6 06         [ 7]  554 	sub	a, #0x06
   028A 38 8A         [12]  555 	jr	C,00108$
   028C                     556 00110$:
   028C DD F9         [10]  557 	ld	sp, ix
   028E DD E1         [14]  558 	pop	ix
   0290 C9            [10]  559 	ret
                            560 ;src/game.c:116: static void register_player_hit(void) {
                            561 ;	---------------------------------
                            562 ; Function register_player_hit
                            563 ; ---------------------------------
   0291                     564 _register_player_hit:
                            565 ;src/game.c:117: if (g_lives) {
   0291 FD 21r81r00   [14]  566 	ld	iy, #_g_lives
   0295 FD 7E 00      [19]  567 	ld	a, 0 (iy)
   0298 B7            [ 4]  568 	or	a, a
   0299 28 03         [12]  569 	jr	Z,00102$
                            570 ;src/game.c:118: g_lives--;
   029B FD 35 00      [23]  571 	dec	0 (iy)
   029E                     572 00102$:
                            573 ;src/game.c:120: if (g_lives == 0) {
   029E 3Ar81r00      [13]  574 	ld	a,(#_g_lives + 0)
   02A1 B7            [ 4]  575 	or	a, a
   02A2 20 06         [12]  576 	jr	NZ,00104$
                            577 ;src/game.c:121: g_gameover = 1;
   02A4 21r8Cr00      [10]  578 	ld	hl,#_g_gameover + 0
   02A7 36 01         [10]  579 	ld	(hl), #0x01
                            580 ;src/game.c:122: return;
   02A9 C9            [10]  581 	ret
   02AA                     582 00104$:
                            583 ;src/game.c:125: reset_player_to_checkpoint();
   02AA CDr00r00      [17]  584 	call	_reset_player_to_checkpoint
                            585 ;src/game.c:126: g_damagecooldown = 40;
   02AD 21r89r00      [10]  586 	ld	hl,#_g_damagecooldown + 0
   02B0 36 28         [10]  587 	ld	(hl), #0x28
   02B2 C9            [10]  588 	ret
                            589 ;src/game.c:129: void game_init(void) {
                            590 ;	---------------------------------
                            591 ; Function game_init
                            592 ; ---------------------------------
   02B3                     593 _game_init::
                            594 ;src/game.c:132: cpct_disableFirmware();
   02B3 CDr00r00      [17]  595 	call	_cpct_disableFirmware
                            596 ;src/game.c:133: cpct_setVideoMode(1);
   02B6 2E 01         [ 7]  597 	ld	l, #0x01
   02B8 CDr00r00      [17]  598 	call	_cpct_setVideoMode
                            599 ;src/game.c:134: cpct_setPalette((u8*)gpalette16, 16);
   02BB 21 10 00      [10]  600 	ld	hl, #0x0010
   02BE E5            [11]  601 	push	hl
   02BF 21r00r00      [10]  602 	ld	hl, #_gpalette16
   02C2 E5            [11]  603 	push	hl
   02C3 CDr00r00      [17]  604 	call	_cpct_setPalette
                            605 ;src/game.c:135: cpct_setBorder(gpalette16[0]);
   02C6 21r00r00      [10]  606 	ld	hl, #_gpalette16 + 0
   02C9 46            [ 7]  607 	ld	b, (hl)
   02CA C5            [11]  608 	push	bc
   02CB 33            [ 6]  609 	inc	sp
   02CC 3E 10         [ 7]  610 	ld	a, #0x10
   02CE F5            [11]  611 	push	af
   02CF 33            [ 6]  612 	inc	sp
   02D0 CDr00r00      [17]  613 	call	_cpct_setPALColour
                            614 ;src/game.c:136: cpct_clearScreen(0x00);
   02D3 21 00 40      [10]  615 	ld	hl, #0x4000
   02D6 E5            [11]  616 	push	hl
   02D7 AF            [ 4]  617 	xor	a, a
   02D8 F5            [11]  618 	push	af
   02D9 33            [ 6]  619 	inc	sp
   02DA 26 C0         [ 7]  620 	ld	h, #0xc0
   02DC E5            [11]  621 	push	hl
   02DD CDr00r00      [17]  622 	call	_cpct_memset
                            623 ;src/game.c:137: tilemap_init();
   02E0 CDr00r00      [17]  624 	call	_tilemap_init
                            625 ;src/game.c:138: collision_init();
   02E3 CDr00r00      [17]  626 	call	_collision_init
                            627 ;src/game.c:139: playerinit(&g_player);
   02E6 21r00r00      [10]  628 	ld	hl, #_g_player
   02E9 E5            [11]  629 	push	hl
   02EA CDr00r00      [17]  630 	call	_playerinit
   02ED F1            [10]  631 	pop	af
                            632 ;src/game.c:140: hudinit();
   02EE CDr00r00      [17]  633 	call	_hudinit
                            634 ;src/game.c:142: for (i = 0; i < MAX_PROJECTILES; ++i) {
   02F1 0E 00         [ 7]  635 	ld	c, #0x00
   02F3                     636 00102$:
                            637 ;src/game.c:143: projectileinit(&g_projectiles[i]);
   02F3 06 00         [ 7]  638 	ld	b,#0x00
   02F5 69            [ 4]  639 	ld	l, c
   02F6 60            [ 4]  640 	ld	h, b
   02F7 29            [11]  641 	add	hl, hl
   02F8 29            [11]  642 	add	hl, hl
   02F9 09            [11]  643 	add	hl, bc
   02FA 29            [11]  644 	add	hl, hl
   02FB 11r45r00      [10]  645 	ld	de, #_g_projectiles
   02FE 19            [11]  646 	add	hl, de
   02FF C5            [11]  647 	push	bc
   0300 E5            [11]  648 	push	hl
   0301 CDr00r00      [17]  649 	call	_projectileinit
   0304 F1            [10]  650 	pop	af
   0305 C1            [10]  651 	pop	bc
                            652 ;src/game.c:142: for (i = 0; i < MAX_PROJECTILES; ++i) {
   0306 0C            [ 4]  653 	inc	c
   0307 79            [ 4]  654 	ld	a, c
   0308 D6 06         [ 7]  655 	sub	a, #0x06
   030A 38 E7         [12]  656 	jr	C,00102$
                            657 ;src/game.c:146: g_lives = 3;
   030C 21r81r00      [10]  658 	ld	hl,#_g_lives + 0
   030F 36 03         [10]  659 	ld	(hl), #0x03
                            660 ;src/game.c:147: g_score = 0;
   0311 21 00 00      [10]  661 	ld	hl, #0x0000
   0314 22r82r00      [16]  662 	ld	(_g_score), hl
                            663 ;src/game.c:148: g_timeleft = 99;
   0317 FD 21r84r00   [14]  664 	ld	iy, #_g_timeleft
   031B FD 36 00 63   [19]  665 	ld	0 (iy), #0x63
                            666 ;src/game.c:149: g_weapondisplay = 1;
   031F FD 21r85r00   [14]  667 	ld	iy, #_g_weapondisplay
   0323 FD 36 00 01   [19]  668 	ld	0 (iy), #0x01
                            669 ;src/game.c:150: g_currentwave = 0;
   0327 FD 21r86r00   [14]  670 	ld	iy, #_g_currentwave
   032B FD 36 00 00   [19]  671 	ld	0 (iy), #0x00
                            672 ;src/game.c:151: g_wavecooldown = 1;
   032F FD 21r88r00   [14]  673 	ld	iy, #_g_wavecooldown
   0333 FD 36 00 01   [19]  674 	ld	0 (iy), #0x01
                            675 ;src/game.c:152: g_damagecooldown = 0;
   0337 FD 21r89r00   [14]  676 	ld	iy, #_g_damagecooldown
   033B FD 36 00 00   [19]  677 	ld	0 (iy), #0x00
                            678 ;src/game.c:153: g_shootcooldown = 0;
   033F FD 21r8Ar00   [14]  679 	ld	iy, #_g_shootcooldown
   0343 FD 36 00 00   [19]  680 	ld	0 (iy), #0x00
                            681 ;src/game.c:154: g_victory = 0;
   0347 FD 21r8Br00   [14]  682 	ld	iy, #_g_victory
   034B FD 36 00 00   [19]  683 	ld	0 (iy), #0x00
                            684 ;src/game.c:155: g_gameover = 0;
   034F FD 21r8Cr00   [14]  685 	ld	iy, #_g_gameover
   0353 FD 36 00 00   [19]  686 	ld	0 (iy), #0x00
                            687 ;src/game.c:156: g_framecounter = 0;
   0357 2E 00         [ 7]  688 	ld	l, #0x00
   0359 22r8Dr00      [16]  689 	ld	(_g_framecounter), hl
                            690 ;src/game.c:157: g_checkpointx = 20;
   035C 21r8Fr00      [10]  691 	ld	hl,#_g_checkpointx + 0
   035F 36 14         [10]  692 	ld	(hl), #0x14
                            693 ;src/game.c:158: g_checkpointy = 120;
   0361 21r90r00      [10]  694 	ld	hl,#_g_checkpointy + 0
   0364 36 78         [10]  695 	ld	(hl), #0x78
                            696 ;src/game.c:159: g_checkpointactive = 0;
   0366 21r91r00      [10]  697 	ld	hl,#_g_checkpointactive + 0
   0369 36 00         [10]  698 	ld	(hl), #0x00
                            699 ;src/game.c:160: g_bossactive = 0;
   036B 21r9Cr00      [10]  700 	ld	hl,#_g_bossactive + 0
   036E 36 00         [10]  701 	ld	(hl), #0x00
                            702 ;src/game.c:161: g_weaponlevel = 0;
   0370 21r9Er00      [10]  703 	ld	hl,#_g_weaponlevel + 0
   0373 36 00         [10]  704 	ld	(hl), #0x00
                            705 ;src/game.c:162: g_pickuptaken = 0;
   0375 21r9Fr00      [10]  706 	ld	hl,#_g_pickuptaken + 0
   0378 36 00         [10]  707 	ld	(hl), #0x00
                            708 ;src/game.c:163: enemyinit(&g_boss);
   037A 21r92r00      [10]  709 	ld	hl, #_g_boss
   037D E5            [11]  710 	push	hl
   037E CDr00r00      [17]  711 	call	_enemyinit
   0381 F1            [10]  712 	pop	af
   0382 C9            [10]  713 	ret
                            714 ;src/game.c:166: void game_update(void) {
                            715 ;	---------------------------------
                            716 ; Function game_update
                            717 ; ---------------------------------
   0383                     718 _game_update::
   0383 DD E5         [15]  719 	push	ix
   0385 DD 21 00 00   [14]  720 	ld	ix,#0
   0389 DD 39         [15]  721 	add	ix,sp
   038B 21 E7 FF      [10]  722 	ld	hl, #-25
   038E 39            [11]  723 	add	hl, sp
   038F F9            [ 6]  724 	ld	sp, hl
                            725 ;src/game.c:170: input_update();
   0390 CDr00r00      [17]  726 	call	_input_update
                            727 ;src/game.c:172: if (g_gameover || g_victory) {
   0393 3Ar8Cr00      [13]  728 	ld	a,(#_g_gameover + 0)
   0396 B7            [ 4]  729 	or	a, a
   0397 20 06         [12]  730 	jr	NZ,00101$
   0399 3Ar8Br00      [13]  731 	ld	a,(#_g_victory + 0)
   039C B7            [ 4]  732 	or	a, a
   039D 28 1C         [12]  733 	jr	Z,00102$
   039F                     734 00101$:
                            735 ;src/game.c:173: hudupdate(g_lives, g_score, g_timeleft, g_weapondisplay);
   039F 3Ar85r00      [13]  736 	ld	a, (_g_weapondisplay)
   03A2 F5            [11]  737 	push	af
   03A3 33            [ 6]  738 	inc	sp
   03A4 3Ar84r00      [13]  739 	ld	a, (_g_timeleft)
   03A7 F5            [11]  740 	push	af
   03A8 33            [ 6]  741 	inc	sp
   03A9 2Ar82r00      [16]  742 	ld	hl, (_g_score)
   03AC E5            [11]  743 	push	hl
   03AD 3Ar81r00      [13]  744 	ld	a, (_g_lives)
   03B0 F5            [11]  745 	push	af
   03B1 33            [ 6]  746 	inc	sp
   03B2 CDr00r00      [17]  747 	call	_hudupdate
   03B5 F1            [10]  748 	pop	af
   03B6 F1            [10]  749 	pop	af
   03B7 33            [ 6]  750 	inc	sp
                            751 ;src/game.c:174: return;
   03B8 C3rA6r09      [10]  752 	jp	00181$
   03BB                     753 00102$:
                            754 ;src/game.c:177: playerupdate(&g_player);
   03BB 21r00r00      [10]  755 	ld	hl, #_g_player
   03BE E5            [11]  756 	push	hl
   03BF CDr00r00      [17]  757 	call	_playerupdate
   03C2 F1            [10]  758 	pop	af
                            759 ;src/game.c:178: try_fire_projectile();
   03C3 CDrEBr01      [17]  760 	call	_try_fire_projectile
                            761 ;src/game.c:180: if (g_shootcooldown) g_shootcooldown--;
   03C6 FD 21r8Ar00   [14]  762 	ld	iy, #_g_shootcooldown
   03CA FD 7E 00      [19]  763 	ld	a, 0 (iy)
   03CD B7            [ 4]  764 	or	a, a
   03CE 28 03         [12]  765 	jr	Z,00105$
   03D0 FD 35 00      [23]  766 	dec	0 (iy)
   03D3                     767 00105$:
                            768 ;src/game.c:181: if (g_damagecooldown) g_damagecooldown--;
   03D3 FD 21r89r00   [14]  769 	ld	iy, #_g_damagecooldown
   03D7 FD 7E 00      [19]  770 	ld	a, 0 (iy)
   03DA B7            [ 4]  771 	or	a, a
   03DB 28 03         [12]  772 	jr	Z,00192$
   03DD FD 35 00      [23]  773 	dec	0 (iy)
                            774 ;src/game.c:183: for (i = 0; i < MAX_PROJECTILES; ++i) {
   03E0                     775 00192$:
   03E0 0E 00         [ 7]  776 	ld	c, #0x00
   03E2                     777 00174$:
                            778 ;src/game.c:184: projectileupdate(&g_projectiles[i]);
   03E2 06 00         [ 7]  779 	ld	b,#0x00
   03E4 69            [ 4]  780 	ld	l, c
   03E5 60            [ 4]  781 	ld	h, b
   03E6 29            [11]  782 	add	hl, hl
   03E7 29            [11]  783 	add	hl, hl
   03E8 09            [11]  784 	add	hl, bc
   03E9 29            [11]  785 	add	hl, hl
   03EA 11r45r00      [10]  786 	ld	de, #_g_projectiles
   03ED 19            [11]  787 	add	hl, de
   03EE C5            [11]  788 	push	bc
   03EF E5            [11]  789 	push	hl
   03F0 CDr00r00      [17]  790 	call	_projectileupdate
   03F3 F1            [10]  791 	pop	af
   03F4 C1            [10]  792 	pop	bc
                            793 ;src/game.c:183: for (i = 0; i < MAX_PROJECTILES; ++i) {
   03F5 0C            [ 4]  794 	inc	c
   03F6 79            [ 4]  795 	ld	a, c
   03F7 D6 06         [ 7]  796 	sub	a, #0x06
   03F9 38 E7         [12]  797 	jr	C,00174$
                            798 ;src/game.c:187: for (i = 0; i < MAX_ENEMIES; ++i) {
   03FB 0E 00         [ 7]  799 	ld	c, #0x00
   03FD                     800 00176$:
                            801 ;src/game.c:188: enemyupdate(&g_enemies[i]);
   03FD 06 00         [ 7]  802 	ld	b,#0x00
   03FF 69            [ 4]  803 	ld	l, c
   0400 60            [ 4]  804 	ld	h, b
   0401 29            [11]  805 	add	hl, hl
   0402 29            [11]  806 	add	hl, hl
   0403 09            [11]  807 	add	hl, bc
   0404 29            [11]  808 	add	hl, hl
   0405 11r09r00      [10]  809 	ld	de, #_g_enemies
   0408 19            [11]  810 	add	hl, de
   0409 C5            [11]  811 	push	bc
   040A E5            [11]  812 	push	hl
   040B CDr00r00      [17]  813 	call	_enemyupdate
   040E F1            [10]  814 	pop	af
   040F C1            [10]  815 	pop	bc
                            816 ;src/game.c:187: for (i = 0; i < MAX_ENEMIES; ++i) {
   0410 0C            [ 4]  817 	inc	c
   0411 79            [ 4]  818 	ld	a, c
   0412 D6 06         [ 7]  819 	sub	a, #0x06
   0414 38 E7         [12]  820 	jr	C,00176$
                            821 ;src/game.c:191: if (g_bossactive) {
   0416 3Ar9Cr00      [13]  822 	ld	a,(#_g_bossactive + 0)
   0419 B7            [ 4]  823 	or	a, a
   041A 28 71         [12]  824 	jr	Z,00211$
                            825 ;src/game.c:192: if (g_boss.health > 4) g_bossphase = 0;
   041C 21r99r00      [10]  826 	ld	hl, #_g_boss + 7
   041F 4E            [ 7]  827 	ld	c, (hl)
   0420 3E 04         [ 7]  828 	ld	a, #0x04
   0422 91            [ 4]  829 	sub	a, c
   0423 30 07         [12]  830 	jr	NC,00111$
   0425 21r9Dr00      [10]  831 	ld	hl,#_g_bossphase + 0
   0428 36 00         [10]  832 	ld	(hl), #0x00
   042A 18 05         [12]  833 	jr	00112$
   042C                     834 00111$:
                            835 ;src/game.c:193: else g_bossphase = 1;
   042C 21r9Dr00      [10]  836 	ld	hl,#_g_bossphase + 0
   042F 36 01         [10]  837 	ld	(hl), #0x01
   0431                     838 00112$:
                            839 ;src/game.c:195: g_boss.vx = (i8)(g_player.x + 2 < g_boss.x ? -(g_bossphase ? 2 : 1) : (g_bossphase ? 2 : 1));
   0431 3Ar00r00      [13]  840 	ld	a,(#_g_player + 0)
   0434 DD 77 EB      [19]  841 	ld	-21 (ix), a
   0437 DD 77 E9      [19]  842 	ld	-23 (ix), a
   043A DD 36 EA 00   [19]  843 	ld	-22 (ix), #0x00
   043E DD 7E E9      [19]  844 	ld	a, -23 (ix)
   0441 C6 02         [ 7]  845 	add	a, #0x02
   0443 DD 77 E9      [19]  846 	ld	-23 (ix), a
   0446 DD 7E EA      [19]  847 	ld	a, -22 (ix)
   0449 CE 00         [ 7]  848 	adc	a, #0x00
   044B DD 77 EA      [19]  849 	ld	-22 (ix), a
   044E 21r92r00      [10]  850 	ld	hl, #_g_boss + 0
   0451 4E            [ 7]  851 	ld	c, (hl)
   0452 06 00         [ 7]  852 	ld	b, #0x00
   0454 DD 7E E9      [19]  853 	ld	a, -23 (ix)
   0457 91            [ 4]  854 	sub	a, c
   0458 DD 7E EA      [19]  855 	ld	a, -22 (ix)
   045B 98            [ 4]  856 	sbc	a, b
   045C E2r61r04      [10]  857 	jp	PO, 00380$
   045F EE 80         [ 7]  858 	xor	a, #0x80
   0461                     859 00380$:
   0461 F2r75r04      [10]  860 	jp	P, 00183$
   0464 3Ar9Dr00      [13]  861 	ld	a,(#_g_bossphase + 0)
   0467 B7            [ 4]  862 	or	a, a
   0468 28 04         [12]  863 	jr	Z,00185$
   046A 0E 02         [ 7]  864 	ld	c, #0x02
   046C 18 02         [12]  865 	jr	00186$
   046E                     866 00185$:
   046E 0E 01         [ 7]  867 	ld	c, #0x01
   0470                     868 00186$:
   0470 AF            [ 4]  869 	xor	a, a
   0471 91            [ 4]  870 	sub	a, c
   0472 4F            [ 4]  871 	ld	c, a
   0473 18 0C         [12]  872 	jr	00184$
   0475                     873 00183$:
   0475 3Ar9Dr00      [13]  874 	ld	a,(#_g_bossphase + 0)
   0478 B7            [ 4]  875 	or	a, a
   0479 28 04         [12]  876 	jr	Z,00187$
   047B 0E 02         [ 7]  877 	ld	c, #0x02
   047D 18 02         [12]  878 	jr	00188$
   047F                     879 00187$:
   047F 0E 01         [ 7]  880 	ld	c, #0x01
   0481                     881 00188$:
   0481                     882 00184$:
   0481 21r94r00      [10]  883 	ld	hl, #(_g_boss + 0x0002)
   0484 71            [ 7]  884 	ld	(hl), c
                            885 ;src/game.c:196: enemyupdate(&g_boss);
   0485 21r92r00      [10]  886 	ld	hl, #_g_boss
   0488 E5            [11]  887 	push	hl
   0489 CDr00r00      [17]  888 	call	_enemyupdate
   048C F1            [10]  889 	pop	af
                            890 ;src/game.c:199: for (i = 0; i < MAX_PROJECTILES; ++i) {
   048D                     891 00211$:
   048D 0E 00         [ 7]  892 	ld	c, #0x00
   048F                     893 00179$:
                            894 ;src/game.c:200: if (!g_projectiles[i].active) continue;
   048F 06 00         [ 7]  895 	ld	b,#0x00
   0491 69            [ 4]  896 	ld	l, c
   0492 60            [ 4]  897 	ld	h, b
   0493 29            [11]  898 	add	hl, hl
   0494 29            [11]  899 	add	hl, hl
   0495 09            [11]  900 	add	hl, bc
   0496 29            [11]  901 	add	hl, hl
   0497 EB            [ 4]  902 	ex	de,hl
   0498 21r45r00      [10]  903 	ld	hl, #_g_projectiles
   049B 19            [11]  904 	add	hl,de
   049C EB            [ 4]  905 	ex	de,hl
   049D 21 06 00      [10]  906 	ld	hl, #0x0006
   04A0 19            [11]  907 	add	hl,de
   04A1 DD 75 E9      [19]  908 	ld	-23 (ix), l
   04A4 DD 74 EA      [19]  909 	ld	-22 (ix), h
   04A7 7E            [ 7]  910 	ld	a, (hl)
   04A8 B7            [ 4]  911 	or	a, a
   04A9 CArCAr06      [10]  912 	jp	Z, 00133$
                            913 ;src/game.c:201: for (j = 0; j < MAX_ENEMIES; ++j) {
   04AC DD 36 E7 00   [19]  914 	ld	-25 (ix), #0x00
   04B0                     915 00178$:
                            916 ;src/game.c:202: if (!g_enemies[j].active) continue;
   04B0 D5            [11]  917 	push	de
   04B1 DD 5E E7      [19]  918 	ld	e,-25 (ix)
   04B4 16 00         [ 7]  919 	ld	d,#0x00
   04B6 6B            [ 4]  920 	ld	l, e
   04B7 62            [ 4]  921 	ld	h, d
   04B8 29            [11]  922 	add	hl, hl
   04B9 29            [11]  923 	add	hl, hl
   04BA 19            [11]  924 	add	hl, de
   04BB 29            [11]  925 	add	hl, hl
   04BC D1            [10]  926 	pop	de
   04BD 3Er09         [ 7]  927 	ld	a, #<(_g_enemies)
   04BF 85            [ 4]  928 	add	a, l
   04C0 DD 77 FE      [19]  929 	ld	-2 (ix), a
   04C3 3Es00         [ 7]  930 	ld	a, #>(_g_enemies)
   04C5 8C            [ 4]  931 	adc	a, h
   04C6 DD 77 FF      [19]  932 	ld	-1 (ix), a
   04C9 DD 6E FE      [19]  933 	ld	l,-2 (ix)
   04CC DD 66 FF      [19]  934 	ld	h,-1 (ix)
   04CF C5            [11]  935 	push	bc
   04D0 01 06 00      [10]  936 	ld	bc, #0x0006
   04D3 09            [11]  937 	add	hl, bc
   04D4 C1            [10]  938 	pop	bc
   04D5 46            [ 7]  939 	ld	b, (hl)
                            940 ;src/game.c:203: if (!rect_overlap((i16)g_projectiles[i].x, (i16)g_projectiles[i].y, g_projectiles[i].w, g_projectiles[i].h,
   04D6 21 05 00      [10]  941 	ld	hl, #0x0005
   04D9 19            [11]  942 	add	hl,de
   04DA DD 75 F2      [19]  943 	ld	-14 (ix), l
   04DD DD 74 F3      [19]  944 	ld	-13 (ix), h
   04E0 21 04 00      [10]  945 	ld	hl, #0x0004
   04E3 19            [11]  946 	add	hl,de
   04E4 DD 75 F0      [19]  947 	ld	-16 (ix), l
   04E7 DD 74 F1      [19]  948 	ld	-15 (ix), h
   04EA 21 01 00      [10]  949 	ld	hl, #0x0001
   04ED 19            [11]  950 	add	hl,de
   04EE DD 75 F6      [19]  951 	ld	-10 (ix), l
   04F1 DD 74 F7      [19]  952 	ld	-9 (ix), h
                            953 ;src/game.c:205: if (enemydamage(&g_enemies[j], g_projectiles[i].damage)) {
   04F4 21 07 00      [10]  954 	ld	hl, #0x0007
   04F7 19            [11]  955 	add	hl,de
   04F8 DD 75 F4      [19]  956 	ld	-12 (ix), l
   04FB DD 74 F5      [19]  957 	ld	-11 (ix), h
                            958 ;src/game.c:202: if (!g_enemies[j].active) continue;
   04FE 78            [ 4]  959 	ld	a, b
   04FF B7            [ 4]  960 	or	a, a
   0500 CArF8r05      [10]  961 	jp	Z, 00125$
                            962 ;src/game.c:204: (i16)g_enemies[j].x, (i16)g_enemies[j].y, g_enemies[j].w, g_enemies[j].h)) continue;
   0503 DD 6E FE      [19]  963 	ld	l,-2 (ix)
   0506 DD 66 FF      [19]  964 	ld	h,-1 (ix)
   0509 23            [ 6]  965 	inc	hl
   050A 23            [ 6]  966 	inc	hl
   050B 23            [ 6]  967 	inc	hl
   050C 23            [ 6]  968 	inc	hl
   050D 23            [ 6]  969 	inc	hl
   050E 7E            [ 7]  970 	ld	a, (hl)
   050F DD 77 EB      [19]  971 	ld	-21 (ix), a
   0512 DD 6E FE      [19]  972 	ld	l,-2 (ix)
   0515 DD 66 FF      [19]  973 	ld	h,-1 (ix)
   0518 23            [ 6]  974 	inc	hl
   0519 23            [ 6]  975 	inc	hl
   051A 23            [ 6]  976 	inc	hl
   051B 23            [ 6]  977 	inc	hl
   051C 7E            [ 7]  978 	ld	a, (hl)
   051D DD 77 FD      [19]  979 	ld	-3 (ix), a
   0520 DD 6E FE      [19]  980 	ld	l,-2 (ix)
   0523 DD 66 FF      [19]  981 	ld	h,-1 (ix)
   0526 23            [ 6]  982 	inc	hl
   0527 46            [ 7]  983 	ld	b, (hl)
   0528 DD 70 FB      [19]  984 	ld	-5 (ix), b
   052B DD 36 FC 00   [19]  985 	ld	-4 (ix), #0x00
   052F DD 6E FE      [19]  986 	ld	l,-2 (ix)
   0532 DD 66 FF      [19]  987 	ld	h,-1 (ix)
   0535 46            [ 7]  988 	ld	b, (hl)
   0536 DD 70 F9      [19]  989 	ld	-7 (ix), b
   0539 DD 36 FA 00   [19]  990 	ld	-6 (ix), #0x00
                            991 ;src/game.c:203: if (!rect_overlap((i16)g_projectiles[i].x, (i16)g_projectiles[i].y, g_projectiles[i].w, g_projectiles[i].h,
   053D DD 6E F2      [19]  992 	ld	l,-14 (ix)
   0540 DD 66 F3      [19]  993 	ld	h,-13 (ix)
   0543 7E            [ 7]  994 	ld	a, (hl)
   0544 DD 77 F8      [19]  995 	ld	-8 (ix), a
   0547 DD 6E F0      [19]  996 	ld	l,-16 (ix)
   054A DD 66 F1      [19]  997 	ld	h,-15 (ix)
   054D 46            [ 7]  998 	ld	b, (hl)
   054E DD 6E F6      [19]  999 	ld	l,-10 (ix)
   0551 DD 66 F7      [19] 1000 	ld	h,-9 (ix)
   0554 6E            [ 7] 1001 	ld	l, (hl)
   0555 DD 75 EE      [19] 1002 	ld	-18 (ix), l
   0558 DD 36 EF 00   [19] 1003 	ld	-17 (ix), #0x00
   055C 1A            [ 7] 1004 	ld	a, (de)
   055D DD 77 EC      [19] 1005 	ld	-20 (ix), a
   0560 DD 36 ED 00   [19] 1006 	ld	-19 (ix), #0x00
   0564 C5            [11] 1007 	push	bc
   0565 D5            [11] 1008 	push	de
   0566 DD 66 EB      [19] 1009 	ld	h, -21 (ix)
   0569 DD 6E FD      [19] 1010 	ld	l, -3 (ix)
   056C E5            [11] 1011 	push	hl
   056D DD 6E FB      [19] 1012 	ld	l,-5 (ix)
   0570 DD 66 FC      [19] 1013 	ld	h,-4 (ix)
   0573 E5            [11] 1014 	push	hl
   0574 DD 6E F9      [19] 1015 	ld	l,-7 (ix)
   0577 DD 66 FA      [19] 1016 	ld	h,-6 (ix)
   057A E5            [11] 1017 	push	hl
   057B DD 7E F8      [19] 1018 	ld	a, -8 (ix)
   057E F5            [11] 1019 	push	af
   057F 33            [ 6] 1020 	inc	sp
   0580 C5            [11] 1021 	push	bc
   0581 33            [ 6] 1022 	inc	sp
   0582 DD 6E EE      [19] 1023 	ld	l,-18 (ix)
   0585 DD 66 EF      [19] 1024 	ld	h,-17 (ix)
   0588 E5            [11] 1025 	push	hl
   0589 DD 6E EC      [19] 1026 	ld	l,-20 (ix)
   058C DD 66 ED      [19] 1027 	ld	h,-19 (ix)
   058F E5            [11] 1028 	push	hl
   0590 CDr19r00      [17] 1029 	call	_rect_overlap
   0593 FD 21 0C 00   [14] 1030 	ld	iy, #12
   0597 FD 39         [15] 1031 	add	iy, sp
   0599 FD F9         [10] 1032 	ld	sp, iy
   059B D1            [10] 1033 	pop	de
   059C C1            [10] 1034 	pop	bc
   059D 7D            [ 4] 1035 	ld	a, l
   059E B7            [ 4] 1036 	or	a, a
   059F 28 57         [12] 1037 	jr	Z,00125$
                           1038 ;src/game.c:205: if (enemydamage(&g_enemies[j], g_projectiles[i].damage)) {
   05A1 DD 6E F4      [19] 1039 	ld	l,-12 (ix)
   05A4 DD 66 F5      [19] 1040 	ld	h,-11 (ix)
   05A7 66            [ 7] 1041 	ld	h, (hl)
   05A8 DD 6E FE      [19] 1042 	ld	l, -2 (ix)
   05AB DD 46 FF      [19] 1043 	ld	b, -1 (ix)
   05AE C5            [11] 1044 	push	bc
   05AF D5            [11] 1045 	push	de
   05B0 E5            [11] 1046 	push	hl
   05B1 33            [ 6] 1047 	inc	sp
   05B2 60            [ 4] 1048 	ld	h, b
   05B3 E5            [11] 1049 	push	hl
   05B4 CDr00r00      [17] 1050 	call	_enemydamage
   05B7 F1            [10] 1051 	pop	af
   05B8 33            [ 6] 1052 	inc	sp
   05B9 D1            [10] 1053 	pop	de
   05BA C1            [10] 1054 	pop	bc
   05BB 7D            [ 4] 1055 	ld	a, l
   05BC B7            [ 4] 1056 	or	a, a
   05BD 28 2F         [12] 1057 	jr	Z,00124$
                           1058 ;src/game.c:206: g_score = (u16)(g_score + g_enemies[j].reward);
   05BF DD 6E FE      [19] 1059 	ld	l,-2 (ix)
   05C2 DD 66 FF      [19] 1060 	ld	h,-1 (ix)
   05C5 C5            [11] 1061 	push	bc
   05C6 01 08 00      [10] 1062 	ld	bc, #0x0008
   05C9 09            [11] 1063 	add	hl, bc
   05CA C1            [10] 1064 	pop	bc
   05CB 6E            [ 7] 1065 	ld	l, (hl)
   05CC DD 75 EC      [19] 1066 	ld	-20 (ix), l
   05CF DD 36 ED 00   [19] 1067 	ld	-19 (ix), #0x00
   05D3 21r82r00      [10] 1068 	ld	hl, #_g_score
   05D6 7E            [ 7] 1069 	ld	a, (hl)
   05D7 DD 86 EC      [19] 1070 	add	a, -20 (ix)
   05DA 77            [ 7] 1071 	ld	(hl), a
   05DB 23            [ 6] 1072 	inc	hl
   05DC 7E            [ 7] 1073 	ld	a, (hl)
   05DD DD 8E ED      [19] 1074 	adc	a, -19 (ix)
   05E0 77            [ 7] 1075 	ld	(hl), a
                           1076 ;src/game.c:207: if (g_aliveenemies) g_aliveenemies--;
   05E1 FD 21r87r00   [14] 1077 	ld	iy, #_g_aliveenemies
   05E5 FD 7E 00      [19] 1078 	ld	a, 0 (iy)
   05E8 B7            [ 4] 1079 	or	a, a
   05E9 28 03         [12] 1080 	jr	Z,00124$
   05EB FD 35 00      [23] 1081 	dec	0 (iy)
   05EE                    1082 00124$:
                           1083 ;src/game.c:209: g_projectiles[i].active = 0;
   05EE DD 6E E9      [19] 1084 	ld	l,-23 (ix)
   05F1 DD 66 EA      [19] 1085 	ld	h,-22 (ix)
   05F4 36 00         [10] 1086 	ld	(hl), #0x00
                           1087 ;src/game.c:210: break;
   05F6 18 0B         [12] 1088 	jr	00126$
   05F8                    1089 00125$:
                           1090 ;src/game.c:201: for (j = 0; j < MAX_ENEMIES; ++j) {
   05F8 DD 34 E7      [23] 1091 	inc	-25 (ix)
   05FB DD 7E E7      [19] 1092 	ld	a, -25 (ix)
   05FE D6 06         [ 7] 1093 	sub	a, #0x06
   0600 DArB0r04      [10] 1094 	jp	C, 00178$
   0603                    1095 00126$:
                           1096 ;src/game.c:213: if (g_bossactive && g_projectiles[i].active && rect_overlap((i16)g_projectiles[i].x, (i16)g_projectiles[i].y, g_projectiles[i].w, g_projectiles[i].h,
   0603 3Ar9Cr00      [13] 1097 	ld	a,(#_g_bossactive + 0)
   0606 B7            [ 4] 1098 	or	a, a
   0607 CArCAr06      [10] 1099 	jp	Z, 00133$
   060A DD 6E E9      [19] 1100 	ld	l,-23 (ix)
   060D DD 66 EA      [19] 1101 	ld	h,-22 (ix)
   0610 7E            [ 7] 1102 	ld	a, (hl)
   0611 B7            [ 4] 1103 	or	a, a
   0612 CArCAr06      [10] 1104 	jp	Z, 00133$
                           1105 ;src/game.c:214: (i16)g_boss.x, (i16)g_boss.y, g_boss.w, g_boss.h)) {
   0615 21r97r00      [10] 1106 	ld	hl, #(_g_boss + 0x0005) + 0
   0618 46            [ 7] 1107 	ld	b, (hl)
   0619 3Ar96r00      [13] 1108 	ld	a, (#(_g_boss + 0x0004) + 0)
   061C 21r93r00      [10] 1109 	ld	hl, #(_g_boss + 0x0001) + 0
   061F 6E            [ 7] 1110 	ld	l, (hl)
   0620 DD 75 EC      [19] 1111 	ld	-20 (ix), l
   0623 DD 36 ED 00   [19] 1112 	ld	-19 (ix), #0x00
   0627 21r92r00      [10] 1113 	ld	hl, #_g_boss + 0
   062A 6E            [ 7] 1114 	ld	l, (hl)
   062B DD 75 EE      [19] 1115 	ld	-18 (ix), l
   062E DD 36 EF 00   [19] 1116 	ld	-17 (ix), #0x00
                           1117 ;src/game.c:213: if (g_bossactive && g_projectiles[i].active && rect_overlap((i16)g_projectiles[i].x, (i16)g_projectiles[i].y, g_projectiles[i].w, g_projectiles[i].h,
   0632 DD 6E F2      [19] 1118 	ld	l,-14 (ix)
   0635 DD 66 F3      [19] 1119 	ld	h,-13 (ix)
   0638 F5            [11] 1120 	push	af
   0639 7E            [ 7] 1121 	ld	a, (hl)
   063A DD 77 F8      [19] 1122 	ld	-8 (ix), a
   063D F1            [10] 1123 	pop	af
   063E DD 6E F0      [19] 1124 	ld	l,-16 (ix)
   0641 DD 66 F1      [19] 1125 	ld	h,-15 (ix)
   0644 F5            [11] 1126 	push	af
   0645 7E            [ 7] 1127 	ld	a, (hl)
   0646 DD 77 F9      [19] 1128 	ld	-7 (ix), a
   0649 F1            [10] 1129 	pop	af
   064A DD 6E F6      [19] 1130 	ld	l,-10 (ix)
   064D DD 66 F7      [19] 1131 	ld	h,-9 (ix)
   0650 6E            [ 7] 1132 	ld	l, (hl)
   0651 DD 75 FB      [19] 1133 	ld	-5 (ix), l
   0654 DD 36 FC 00   [19] 1134 	ld	-4 (ix), #0x00
   0658 F5            [11] 1135 	push	af
   0659 1A            [ 7] 1136 	ld	a, (de)
   065A 5F            [ 4] 1137 	ld	e, a
   065B F1            [10] 1138 	pop	af
   065C 16 00         [ 7] 1139 	ld	d, #0x00
   065E C5            [11] 1140 	push	bc
   065F C5            [11] 1141 	push	bc
   0660 33            [ 6] 1142 	inc	sp
   0661 F5            [11] 1143 	push	af
   0662 33            [ 6] 1144 	inc	sp
   0663 DD 6E EC      [19] 1145 	ld	l,-20 (ix)
   0666 DD 66 ED      [19] 1146 	ld	h,-19 (ix)
   0669 E5            [11] 1147 	push	hl
   066A DD 6E EE      [19] 1148 	ld	l,-18 (ix)
   066D DD 66 EF      [19] 1149 	ld	h,-17 (ix)
   0670 E5            [11] 1150 	push	hl
   0671 DD 66 F8      [19] 1151 	ld	h, -8 (ix)
   0674 DD 6E F9      [19] 1152 	ld	l, -7 (ix)
   0677 E5            [11] 1153 	push	hl
   0678 DD 6E FB      [19] 1154 	ld	l,-5 (ix)
   067B DD 66 FC      [19] 1155 	ld	h,-4 (ix)
   067E E5            [11] 1156 	push	hl
   067F D5            [11] 1157 	push	de
   0680 CDr19r00      [17] 1158 	call	_rect_overlap
   0683 FD 21 0C 00   [14] 1159 	ld	iy, #12
   0687 FD 39         [15] 1160 	add	iy, sp
   0689 FD F9         [10] 1161 	ld	sp, iy
   068B C1            [10] 1162 	pop	bc
   068C 7D            [ 4] 1163 	ld	a, l
   068D B7            [ 4] 1164 	or	a, a
   068E 28 3A         [12] 1165 	jr	Z,00133$
                           1166 ;src/game.c:215: g_projectiles[i].active = 0;
   0690 DD 6E E9      [19] 1167 	ld	l,-23 (ix)
   0693 DD 66 EA      [19] 1168 	ld	h,-22 (ix)
   0696 36 00         [10] 1169 	ld	(hl), #0x00
                           1170 ;src/game.c:216: if (enemydamage(&g_boss, g_projectiles[i].damage)) {
   0698 DD 6E F4      [19] 1171 	ld	l,-12 (ix)
   069B DD 66 F5      [19] 1172 	ld	h,-11 (ix)
   069E 46            [ 7] 1173 	ld	b, (hl)
   069F 11r92r00      [10] 1174 	ld	de, #_g_boss
   06A2 C5            [11] 1175 	push	bc
   06A3 C5            [11] 1176 	push	bc
   06A4 33            [ 6] 1177 	inc	sp
   06A5 D5            [11] 1178 	push	de
   06A6 CDr00r00      [17] 1179 	call	_enemydamage
   06A9 F1            [10] 1180 	pop	af
   06AA 33            [ 6] 1181 	inc	sp
   06AB C1            [10] 1182 	pop	bc
   06AC 7D            [ 4] 1183 	ld	a, l
   06AD B7            [ 4] 1184 	or	a, a
   06AE 28 1A         [12] 1185 	jr	Z,00133$
                           1186 ;src/game.c:217: g_bossactive = 0;
   06B0 21r9Cr00      [10] 1187 	ld	hl,#_g_bossactive + 0
   06B3 36 00         [10] 1188 	ld	(hl), #0x00
                           1189 ;src/game.c:218: g_score = (u16)(g_score + g_boss.reward);
   06B5 21r9Ar00      [10] 1190 	ld	hl, #_g_boss + 8
   06B8 5E            [ 7] 1191 	ld	e, (hl)
   06B9 16 00         [ 7] 1192 	ld	d, #0x00
   06BB 21r82r00      [10] 1193 	ld	hl, #_g_score
   06BE 7E            [ 7] 1194 	ld	a, (hl)
   06BF 83            [ 4] 1195 	add	a, e
   06C0 77            [ 7] 1196 	ld	(hl), a
   06C1 23            [ 6] 1197 	inc	hl
   06C2 7E            [ 7] 1198 	ld	a, (hl)
   06C3 8A            [ 4] 1199 	adc	a, d
   06C4 77            [ 7] 1200 	ld	(hl), a
                           1201 ;src/game.c:219: g_victory = 1;
   06C5 21r8Br00      [10] 1202 	ld	hl,#_g_victory + 0
   06C8 36 01         [10] 1203 	ld	(hl), #0x01
   06CA                    1204 00133$:
                           1205 ;src/game.c:199: for (i = 0; i < MAX_PROJECTILES; ++i) {
   06CA 0C            [ 4] 1206 	inc	c
   06CB 79            [ 4] 1207 	ld	a, c
   06CC D6 06         [ 7] 1208 	sub	a, #0x06
   06CE DAr8Fr04      [10] 1209 	jp	C, 00179$
                           1210 ;src/game.c:225: for (i = 0; i < MAX_ENEMIES; ++i) {
                           1211 ;src/game.c:224: if (!g_damagecooldown) {
   06D1 3Ar89r00      [13] 1212 	ld	a,(#_g_damagecooldown + 0)
   06D4 B7            [ 4] 1213 	or	a, a
   06D5 C2r44r08      [10] 1214 	jp	NZ, 00149$
                           1215 ;src/game.c:225: for (i = 0; i < MAX_ENEMIES; ++i) {
   06D8 DD 36 E8 00   [19] 1216 	ld	-24 (ix), #0x00
   06DC                    1217 00180$:
                           1218 ;src/game.c:226: if (!g_enemies[i].active) continue;
   06DC DD 4E E8      [19] 1219 	ld	c,-24 (ix)
   06DF 06 00         [ 7] 1220 	ld	b,#0x00
   06E1 69            [ 4] 1221 	ld	l, c
   06E2 60            [ 4] 1222 	ld	h, b
   06E3 29            [11] 1223 	add	hl, hl
   06E4 29            [11] 1224 	add	hl, hl
   06E5 09            [11] 1225 	add	hl, bc
   06E6 29            [11] 1226 	add	hl, hl
   06E7 4D            [ 4] 1227 	ld	c, l
   06E8 44            [ 4] 1228 	ld	b, h
   06E9 21r09r00      [10] 1229 	ld	hl, #_g_enemies
   06EC 09            [11] 1230 	add	hl,bc
   06ED DD 75 EC      [19] 1231 	ld	-20 (ix), l
   06F0 DD 74 ED      [19] 1232 	ld	-19 (ix), h
   06F3 11 06 00      [10] 1233 	ld	de, #0x0006
   06F6 19            [11] 1234 	add	hl, de
   06F7 7E            [ 7] 1235 	ld	a, (hl)
   06F8 B7            [ 4] 1236 	or	a, a
   06F9 CAr8Er07      [10] 1237 	jp	Z, 00139$
                           1238 ;src/game.c:228: (i16)g_enemies[i].x, (i16)g_enemies[i].y, g_enemies[i].w, g_enemies[i].h)) {
   06FC DD 7E EC      [19] 1239 	ld	a, -20 (ix)
   06FF DD 77 EE      [19] 1240 	ld	-18 (ix), a
   0702 DD 7E ED      [19] 1241 	ld	a, -19 (ix)
   0705 DD 77 EF      [19] 1242 	ld	-17 (ix), a
   0708 DD 6E EE      [19] 1243 	ld	l,-18 (ix)
   070B DD 66 EF      [19] 1244 	ld	h,-17 (ix)
   070E 11 05 00      [10] 1245 	ld	de, #0x0005
   0711 19            [11] 1246 	add	hl, de
   0712 7E            [ 7] 1247 	ld	a, (hl)
   0713 DD 77 EE      [19] 1248 	ld	-18 (ix), a
   0716 DD 6E EC      [19] 1249 	ld	l,-20 (ix)
   0719 DD 66 ED      [19] 1250 	ld	h,-19 (ix)
   071C 11 04 00      [10] 1251 	ld	de, #0x0004
   071F 19            [11] 1252 	add	hl, de
   0720 5E            [ 7] 1253 	ld	e, (hl)
   0721 DD 6E EC      [19] 1254 	ld	l,-20 (ix)
   0724 DD 66 ED      [19] 1255 	ld	h,-19 (ix)
   0727 23            [ 6] 1256 	inc	hl
   0728 4E            [ 7] 1257 	ld	c, (hl)
   0729 06 00         [ 7] 1258 	ld	b, #0x00
   072B DD 6E EC      [19] 1259 	ld	l,-20 (ix)
   072E DD 66 ED      [19] 1260 	ld	h,-19 (ix)
   0731 56            [ 7] 1261 	ld	d, (hl)
   0732 DD 72 EC      [19] 1262 	ld	-20 (ix), d
   0735 DD 36 ED 00   [19] 1263 	ld	-19 (ix), #0x00
                           1264 ;src/game.c:227: if (rect_overlap((i16)g_player.x, (i16)g_player.y, g_player.w, g_player.h,
   0739 3Ar05r00      [13] 1265 	ld	a,(#(_g_player + 0x0005) + 0)
   073C DD 77 F8      [19] 1266 	ld	-8 (ix), a
   073F 3Ar04r00      [13] 1267 	ld	a,(#(_g_player + 0x0004) + 0)
   0742 DD 77 F9      [19] 1268 	ld	-7 (ix), a
   0745 3Ar01r00      [13] 1269 	ld	a, (#(_g_player + 0x0001) + 0)
   0748 DD 77 FB      [19] 1270 	ld	-5 (ix), a
   074B DD 36 FC 00   [19] 1271 	ld	-4 (ix), #0x00
   074F 3Ar00r00      [13] 1272 	ld	a, (#_g_player + 0)
   0752 DD 77 F4      [19] 1273 	ld	-12 (ix), a
   0755 DD 36 F5 00   [19] 1274 	ld	-11 (ix), #0x00
   0759 DD 56 EE      [19] 1275 	ld	d, -18 (ix)
   075C D5            [11] 1276 	push	de
   075D C5            [11] 1277 	push	bc
   075E DD 6E EC      [19] 1278 	ld	l,-20 (ix)
   0761 DD 66 ED      [19] 1279 	ld	h,-19 (ix)
   0764 E5            [11] 1280 	push	hl
   0765 DD 66 F8      [19] 1281 	ld	h, -8 (ix)
   0768 DD 6E F9      [19] 1282 	ld	l, -7 (ix)
   076B E5            [11] 1283 	push	hl
   076C DD 6E FB      [19] 1284 	ld	l,-5 (ix)
   076F DD 66 FC      [19] 1285 	ld	h,-4 (ix)
   0772 E5            [11] 1286 	push	hl
   0773 DD 6E F4      [19] 1287 	ld	l,-12 (ix)
   0776 DD 66 F5      [19] 1288 	ld	h,-11 (ix)
   0779 E5            [11] 1289 	push	hl
   077A CDr19r00      [17] 1290 	call	_rect_overlap
   077D FD 21 0C 00   [14] 1291 	ld	iy, #12
   0781 FD 39         [15] 1292 	add	iy, sp
   0783 FD F9         [10] 1293 	ld	sp, iy
   0785 7D            [ 4] 1294 	ld	a, l
   0786 B7            [ 4] 1295 	or	a, a
   0787 28 05         [12] 1296 	jr	Z,00139$
                           1297 ;src/game.c:229: register_player_hit();
   0789 CDr91r02      [17] 1298 	call	_register_player_hit
                           1299 ;src/game.c:230: break;
   078C 18 0B         [12] 1300 	jr	00140$
   078E                    1301 00139$:
                           1302 ;src/game.c:225: for (i = 0; i < MAX_ENEMIES; ++i) {
   078E DD 34 E8      [23] 1303 	inc	-24 (ix)
   0791 DD 7E E8      [19] 1304 	ld	a, -24 (ix)
   0794 D6 06         [ 7] 1305 	sub	a, #0x06
   0796 DArDCr06      [10] 1306 	jp	C, 00180$
   0799                    1307 00140$:
                           1308 ;src/game.c:234: if (!g_damagecooldown && g_bossactive && rect_overlap((i16)g_player.x, (i16)g_player.y, g_player.w, g_player.h,
   0799 3Ar89r00      [13] 1309 	ld	a,(#_g_damagecooldown + 0)
   079C B7            [ 4] 1310 	or	a, a
   079D 20 6E         [12] 1311 	jr	NZ,00142$
   079F 3Ar9Cr00      [13] 1312 	ld	a,(#_g_bossactive + 0)
   07A2 B7            [ 4] 1313 	or	a, a
   07A3 28 68         [12] 1314 	jr	Z,00142$
                           1315 ;src/game.c:235: (i16)g_boss.x, (i16)g_boss.y, g_boss.w, g_boss.h)) {
   07A5 3Ar97r00      [13] 1316 	ld	a,(#(_g_boss + 0x0005) + 0)
   07A8 DD 77 EC      [19] 1317 	ld	-20 (ix), a
   07AB 3Ar96r00      [13] 1318 	ld	a,(#(_g_boss + 0x0004) + 0)
   07AE DD 77 EE      [19] 1319 	ld	-18 (ix), a
   07B1 21r93r00      [10] 1320 	ld	hl, #(_g_boss + 0x0001) + 0
   07B4 5E            [ 7] 1321 	ld	e, (hl)
   07B5 16 00         [ 7] 1322 	ld	d, #0x00
   07B7 21r92r00      [10] 1323 	ld	hl, #_g_boss + 0
   07BA 4E            [ 7] 1324 	ld	c, (hl)
   07BB 06 00         [ 7] 1325 	ld	b, #0x00
                           1326 ;src/game.c:234: if (!g_damagecooldown && g_bossactive && rect_overlap((i16)g_player.x, (i16)g_player.y, g_player.w, g_player.h,
   07BD 3Ar05r00      [13] 1327 	ld	a,(#(_g_player + 0x0005) + 0)
   07C0 DD 77 F8      [19] 1328 	ld	-8 (ix), a
   07C3 3Ar04r00      [13] 1329 	ld	a,(#(_g_player + 0x0004) + 0)
   07C6 DD 77 F9      [19] 1330 	ld	-7 (ix), a
   07C9 3Ar01r00      [13] 1331 	ld	a, (#(_g_player + 0x0001) + 0)
   07CC DD 77 FB      [19] 1332 	ld	-5 (ix), a
   07CF DD 36 FC 00   [19] 1333 	ld	-4 (ix), #0x00
   07D3 3Ar00r00      [13] 1334 	ld	a, (#_g_player + 0)
   07D6 DD 77 F4      [19] 1335 	ld	-12 (ix), a
   07D9 DD 36 F5 00   [19] 1336 	ld	-11 (ix), #0x00
   07DD DD 66 EC      [19] 1337 	ld	h, -20 (ix)
   07E0 DD 6E EE      [19] 1338 	ld	l, -18 (ix)
   07E3 E5            [11] 1339 	push	hl
   07E4 D5            [11] 1340 	push	de
   07E5 C5            [11] 1341 	push	bc
   07E6 DD 66 F8      [19] 1342 	ld	h, -8 (ix)
   07E9 DD 6E F9      [19] 1343 	ld	l, -7 (ix)
   07EC E5            [11] 1344 	push	hl
   07ED DD 6E FB      [19] 1345 	ld	l,-5 (ix)
   07F0 DD 66 FC      [19] 1346 	ld	h,-4 (ix)
   07F3 E5            [11] 1347 	push	hl
   07F4 DD 6E F4      [19] 1348 	ld	l,-12 (ix)
   07F7 DD 66 F5      [19] 1349 	ld	h,-11 (ix)
   07FA E5            [11] 1350 	push	hl
   07FB CDr19r00      [17] 1351 	call	_rect_overlap
   07FE FD 21 0C 00   [14] 1352 	ld	iy, #12
   0802 FD 39         [15] 1353 	add	iy, sp
   0804 FD F9         [10] 1354 	ld	sp, iy
   0806 7D            [ 4] 1355 	ld	a, l
   0807 B7            [ 4] 1356 	or	a, a
   0808 28 03         [12] 1357 	jr	Z,00142$
                           1358 ;src/game.c:236: register_player_hit();
   080A CDr91r02      [17] 1359 	call	_register_player_hit
   080D                    1360 00142$:
                           1361 ;src/game.c:239: if (!g_damagecooldown && collision_is_on_trap((i16)g_player.x, (i16)g_player.y, g_player.w, g_player.h)) {
   080D 3Ar89r00      [13] 1362 	ld	a,(#_g_damagecooldown + 0)
   0810 B7            [ 4] 1363 	or	a, a
   0811 20 31         [12] 1364 	jr	NZ,00149$
   0813 3Ar05r00      [13] 1365 	ld	a, (#(_g_player + 0x0005) + 0)
   0816 21r04r00      [10] 1366 	ld	hl, #(_g_player + 0x0004) + 0
   0819 56            [ 7] 1367 	ld	d, (hl)
   081A 21r01r00      [10] 1368 	ld	hl, #(_g_player + 0x0001) + 0
   081D 4E            [ 7] 1369 	ld	c, (hl)
   081E 06 00         [ 7] 1370 	ld	b, #0x00
   0820 21r00r00      [10] 1371 	ld	hl, #_g_player + 0
   0823 6E            [ 7] 1372 	ld	l, (hl)
   0824 DD 75 EC      [19] 1373 	ld	-20 (ix), l
   0827 DD 36 ED 00   [19] 1374 	ld	-19 (ix), #0x00
   082B F5            [11] 1375 	push	af
   082C 33            [ 6] 1376 	inc	sp
   082D D5            [11] 1377 	push	de
   082E 33            [ 6] 1378 	inc	sp
   082F C5            [11] 1379 	push	bc
   0830 DD 6E EC      [19] 1380 	ld	l,-20 (ix)
   0833 DD 66 ED      [19] 1381 	ld	h,-19 (ix)
   0836 E5            [11] 1382 	push	hl
   0837 CDr00r00      [17] 1383 	call	_collision_is_on_trap
   083A F1            [10] 1384 	pop	af
   083B F1            [10] 1385 	pop	af
   083C F1            [10] 1386 	pop	af
   083D 7D            [ 4] 1387 	ld	a, l
   083E B7            [ 4] 1388 	or	a, a
   083F 28 03         [12] 1389 	jr	Z,00149$
                           1390 ;src/game.c:240: register_player_hit();
   0841 CDr91r02      [17] 1391 	call	_register_player_hit
   0844                    1392 00149$:
                           1393 ;src/game.c:244: if (!g_checkpointactive && g_player.x >= 44) {
   0844 FD 21r91r00   [14] 1394 	ld	iy, #_g_checkpointactive
   0848 FD 7E 00      [19] 1395 	ld	a, 0 (iy)
   084B B7            [ 4] 1396 	or	a, a
   084C 20 1E         [12] 1397 	jr	NZ,00151$
   084E 3Ar00r00      [13] 1398 	ld	a, (#_g_player + 0)
   0851 D6 2C         [ 7] 1399 	sub	a, #0x2c
   0853 38 17         [12] 1400 	jr	C,00151$
                           1401 ;src/game.c:245: g_checkpointactive = 1;
   0855 FD 36 00 01   [19] 1402 	ld	0 (iy), #0x01
                           1403 ;src/game.c:246: g_checkpointx = 52;
   0859 21r8Fr00      [10] 1404 	ld	hl,#_g_checkpointx + 0
   085C 36 34         [10] 1405 	ld	(hl), #0x34
                           1406 ;src/game.c:247: g_checkpointy = (u8)(tilemap_ground_y() - g_player.h);
   085E CDr00r00      [17] 1407 	call	_tilemap_ground_y
   0861 4D            [ 4] 1408 	ld	c, l
   0862 21r05r00      [10] 1409 	ld	hl, #(_g_player + 0x0005) + 0
   0865 46            [ 7] 1410 	ld	b, (hl)
   0866 21r90r00      [10] 1411 	ld	hl, #_g_checkpointy
   0869 79            [ 4] 1412 	ld	a, c
   086A 90            [ 4] 1413 	sub	a, b
   086B 77            [ 7] 1414 	ld	(hl), a
   086C                    1415 00151$:
                           1416 ;src/game.c:250: if (!g_pickuptaken && rect_overlap((i16)g_player.x, (i16)g_player.y, g_player.w, g_player.h, (i16)36, (i16)(tilemap_ground_y() - 8), 4, 4)) {
   086C 3Ar9Fr00      [13] 1417 	ld	a,(#_g_pickuptaken + 0)
   086F B7            [ 4] 1418 	or	a, a
   0870 C2rFFr08      [10] 1419 	jp	NZ, 00154$
   0873 CDr00r00      [17] 1420 	call	_tilemap_ground_y
   0876 DD 75 EC      [19] 1421 	ld	-20 (ix), l
   0879 DD 75 EC      [19] 1422 	ld	-20 (ix), l
   087C DD 36 ED 00   [19] 1423 	ld	-19 (ix), #0x00
   0880 DD 7E EC      [19] 1424 	ld	a, -20 (ix)
   0883 C6 F8         [ 7] 1425 	add	a, #0xf8
   0885 DD 77 EC      [19] 1426 	ld	-20 (ix), a
   0888 DD 7E ED      [19] 1427 	ld	a, -19 (ix)
   088B CE FF         [ 7] 1428 	adc	a, #0xff
   088D DD 77 ED      [19] 1429 	ld	-19 (ix), a
   0890 3Ar05r00      [13] 1430 	ld	a,(#(_g_player + 0x0005) + 0)
   0893 DD 77 EE      [19] 1431 	ld	-18 (ix), a
   0896 3Ar04r00      [13] 1432 	ld	a,(#(_g_player + 0x0004) + 0)
   0899 DD 77 F8      [19] 1433 	ld	-8 (ix), a
   089C 3Ar01r00      [13] 1434 	ld	a,(#(_g_player + 0x0001) + 0)
   089F DD 77 F9      [19] 1435 	ld	-7 (ix), a
   08A2 DD 77 F9      [19] 1436 	ld	-7 (ix), a
   08A5 DD 36 FA 00   [19] 1437 	ld	-6 (ix), #0x00
   08A9 3Ar00r00      [13] 1438 	ld	a,(#_g_player + 0)
   08AC DD 77 FB      [19] 1439 	ld	-5 (ix), a
   08AF DD 77 FB      [19] 1440 	ld	-5 (ix), a
   08B2 DD 36 FC 00   [19] 1441 	ld	-4 (ix), #0x00
   08B6 21 04 04      [10] 1442 	ld	hl, #0x0404
   08B9 E5            [11] 1443 	push	hl
   08BA DD 6E EC      [19] 1444 	ld	l,-20 (ix)
   08BD DD 66 ED      [19] 1445 	ld	h,-19 (ix)
   08C0 E5            [11] 1446 	push	hl
   08C1 21 24 00      [10] 1447 	ld	hl, #0x0024
   08C4 E5            [11] 1448 	push	hl
   08C5 DD 66 EE      [19] 1449 	ld	h, -18 (ix)
   08C8 DD 6E F8      [19] 1450 	ld	l, -8 (ix)
   08CB E5            [11] 1451 	push	hl
   08CC DD 6E F9      [19] 1452 	ld	l,-7 (ix)
   08CF DD 66 FA      [19] 1453 	ld	h,-6 (ix)
   08D2 E5            [11] 1454 	push	hl
   08D3 DD 6E FB      [19] 1455 	ld	l,-5 (ix)
   08D6 DD 66 FC      [19] 1456 	ld	h,-4 (ix)
   08D9 E5            [11] 1457 	push	hl
   08DA CDr19r00      [17] 1458 	call	_rect_overlap
   08DD FD 21 0C 00   [14] 1459 	ld	iy, #12
   08E1 FD 39         [15] 1460 	add	iy, sp
   08E3 FD F9         [10] 1461 	ld	sp, iy
   08E5 7D            [ 4] 1462 	ld	a, l
   08E6 B7            [ 4] 1463 	or	a, a
   08E7 28 16         [12] 1464 	jr	Z,00154$
                           1465 ;src/game.c:251: g_pickuptaken = 1;
   08E9 21r9Fr00      [10] 1466 	ld	hl,#_g_pickuptaken + 0
   08EC 36 01         [10] 1467 	ld	(hl), #0x01
                           1468 ;src/game.c:252: g_weaponlevel = 1;
   08EE 21r9Er00      [10] 1469 	ld	hl,#_g_weaponlevel + 0
   08F1 36 01         [10] 1470 	ld	(hl), #0x01
                           1471 ;src/game.c:253: g_score = (u16)(g_score + 100);
   08F3 21r82r00      [10] 1472 	ld	hl, #_g_score
   08F6 7E            [ 7] 1473 	ld	a, (hl)
   08F7 C6 64         [ 7] 1474 	add	a, #0x64
   08F9 77            [ 7] 1475 	ld	(hl), a
   08FA 23            [ 6] 1476 	inc	hl
   08FB 7E            [ 7] 1477 	ld	a, (hl)
   08FC CE 00         [ 7] 1478 	adc	a, #0x00
   08FE 77            [ 7] 1479 	ld	(hl), a
   08FF                    1480 00154$:
                           1481 ;src/game.c:256: g_weapondisplay = (u8)(g_weaponlevel + 1);
   08FF 21r85r00      [10] 1482 	ld	hl, #_g_weapondisplay
   0902 3Ar9Er00      [13] 1483 	ld	a,(#_g_weaponlevel + 0)
   0905 3C            [ 4] 1484 	inc	a
   0906 77            [ 7] 1485 	ld	(hl), a
                           1486 ;src/game.c:258: if (!g_bossactive && g_aliveenemies == 0 && !g_gameover) {
   0907 3Ar9Cr00      [13] 1487 	ld	a,(#_g_bossactive + 0)
   090A B7            [ 4] 1488 	or	a, a
   090B 20 45         [12] 1489 	jr	NZ,00165$
   090D 3Ar87r00      [13] 1490 	ld	a,(#_g_aliveenemies + 0)
   0910 B7            [ 4] 1491 	or	a, a
   0911 20 3F         [12] 1492 	jr	NZ,00165$
   0913 3Ar8Cr00      [13] 1493 	ld	a,(#_g_gameover + 0)
   0916 B7            [ 4] 1494 	or	a, a
   0917 20 39         [12] 1495 	jr	NZ,00165$
                           1496 ;src/game.c:259: if (g_currentwave < TOTAL_WAVES) {
   0919 3Ar86r00      [13] 1497 	ld	a,(#_g_currentwave + 0)
   091C D6 03         [ 7] 1498 	sub	a, #0x03
   091E 30 20         [12] 1499 	jr	NC,00162$
                           1500 ;src/game.c:260: if (g_wavecooldown == 0) {
   0920 3Ar88r00      [13] 1501 	ld	a,(#_g_wavecooldown + 0)
   0923 B7            [ 4] 1502 	or	a, a
   0924 20 14         [12] 1503 	jr	NZ,00157$
                           1504 ;src/game.c:261: spawn_wave(g_currentwave);
   0926 3Ar86r00      [13] 1505 	ld	a, (_g_currentwave)
   0929 F5            [11] 1506 	push	af
   092A 33            [ 6] 1507 	inc	sp
   092B CDrA6r00      [17] 1508 	call	_spawn_wave
   092E 33            [ 6] 1509 	inc	sp
                           1510 ;src/game.c:262: g_currentwave++;
   092F 21r86r00      [10] 1511 	ld	hl, #_g_currentwave+0
   0932 34            [11] 1512 	inc	(hl)
                           1513 ;src/game.c:263: g_wavecooldown = 90;
   0933 21r88r00      [10] 1514 	ld	hl,#_g_wavecooldown + 0
   0936 36 5A         [10] 1515 	ld	(hl), #0x5a
   0938 18 18         [12] 1516 	jr	00165$
   093A                    1517 00157$:
                           1518 ;src/game.c:265: g_wavecooldown--;
   093A 21r88r00      [10] 1519 	ld	hl, #_g_wavecooldown+0
   093D 35            [11] 1520 	dec	(hl)
   093E 18 12         [12] 1521 	jr	00165$
   0940                    1522 00162$:
                           1523 ;src/game.c:267: } else if (g_player.x >= (u8)(tilemap_goal_x() - 2)) {
   0940 21r00r00      [10] 1524 	ld	hl, #_g_player + 0
   0943 4E            [ 7] 1525 	ld	c, (hl)
   0944 C5            [11] 1526 	push	bc
   0945 CDr00r00      [17] 1527 	call	_tilemap_goal_x
   0948 C1            [10] 1528 	pop	bc
   0949 2D            [ 4] 1529 	dec	l
   094A 2D            [ 4] 1530 	dec	l
   094B 79            [ 4] 1531 	ld	a, c
   094C 95            [ 4] 1532 	sub	a, l
   094D 38 03         [12] 1533 	jr	C,00165$
                           1534 ;src/game.c:268: spawn_boss();
   094F CDrA6r01      [17] 1535 	call	_spawn_boss
   0952                    1536 00165$:
                           1537 ;src/game.c:272: g_framecounter++;
   0952 FD 21r8Dr00   [14] 1538 	ld	iy, #_g_framecounter
   0956 FD 34 00      [23] 1539 	inc	0 (iy)
   0959 20 03         [12] 1540 	jr	NZ,00381$
   095B FD 34 01      [23] 1541 	inc	1 (iy)
   095E                    1542 00381$:
                           1543 ;src/game.c:273: if ((g_framecounter % 50) == 0 && g_timeleft > 0) {
   095E 21 32 00      [10] 1544 	ld	hl, #0x0032
   0961 E5            [11] 1545 	push	hl
   0962 2Ar8Dr00      [16] 1546 	ld	hl, (_g_framecounter)
   0965 E5            [11] 1547 	push	hl
   0966 CDr00r00      [17] 1548 	call	__moduint
   0969 F1            [10] 1549 	pop	af
   096A F1            [10] 1550 	pop	af
   096B 7C            [ 4] 1551 	ld	a, h
   096C B5            [ 4] 1552 	or	a,l
   096D 20 0D         [12] 1553 	jr	NZ,00169$
   096F FD 21r84r00   [14] 1554 	ld	iy, #_g_timeleft
   0973 FD 7E 00      [19] 1555 	ld	a, 0 (iy)
   0976 B7            [ 4] 1556 	or	a, a
   0977 28 03         [12] 1557 	jr	Z,00169$
                           1558 ;src/game.c:274: g_timeleft--;
   0979 FD 35 00      [23] 1559 	dec	0 (iy)
   097C                    1560 00169$:
                           1561 ;src/game.c:276: if (g_timeleft == 0 && !g_victory) {
   097C 3Ar84r00      [13] 1562 	ld	a,(#_g_timeleft + 0)
   097F B7            [ 4] 1563 	or	a, a
   0980 20 0B         [12] 1564 	jr	NZ,00172$
   0982 3Ar8Br00      [13] 1565 	ld	a,(#_g_victory + 0)
   0985 B7            [ 4] 1566 	or	a, a
   0986 20 05         [12] 1567 	jr	NZ,00172$
                           1568 ;src/game.c:277: g_gameover = 1;
   0988 21r8Cr00      [10] 1569 	ld	hl,#_g_gameover + 0
   098B 36 01         [10] 1570 	ld	(hl), #0x01
   098D                    1571 00172$:
                           1572 ;src/game.c:280: hudupdate(g_lives, g_score, g_timeleft, g_weapondisplay);
   098D 3Ar85r00      [13] 1573 	ld	a, (_g_weapondisplay)
   0990 F5            [11] 1574 	push	af
   0991 33            [ 6] 1575 	inc	sp
   0992 3Ar84r00      [13] 1576 	ld	a, (_g_timeleft)
   0995 F5            [11] 1577 	push	af
   0996 33            [ 6] 1578 	inc	sp
   0997 2Ar82r00      [16] 1579 	ld	hl, (_g_score)
   099A E5            [11] 1580 	push	hl
   099B 3Ar81r00      [13] 1581 	ld	a, (_g_lives)
   099E F5            [11] 1582 	push	af
   099F 33            [ 6] 1583 	inc	sp
   09A0 CDr00r00      [17] 1584 	call	_hudupdate
   09A3 F1            [10] 1585 	pop	af
   09A4 F1            [10] 1586 	pop	af
   09A5 33            [ 6] 1587 	inc	sp
   09A6                    1588 00181$:
   09A6 DD F9         [10] 1589 	ld	sp, ix
   09A8 DD E1         [14] 1590 	pop	ix
   09AA C9            [10] 1591 	ret
                           1592 ;src/game.c:283: void game_render(void) {
                           1593 ;	---------------------------------
                           1594 ; Function game_render
                           1595 ; ---------------------------------
   09AB                    1596 _game_render::
                           1597 ;src/game.c:286: cpct_clearScreen(0x00);
   09AB 21 00 40      [10] 1598 	ld	hl, #0x4000
   09AE E5            [11] 1599 	push	hl
   09AF AF            [ 4] 1600 	xor	a, a
   09B0 F5            [11] 1601 	push	af
   09B1 33            [ 6] 1602 	inc	sp
   09B2 26 C0         [ 7] 1603 	ld	h, #0xc0
   09B4 E5            [11] 1604 	push	hl
   09B5 CDr00r00      [17] 1605 	call	_cpct_memset
                           1606 ;src/game.c:287: tilemap_render();
   09B8 CDr00r00      [17] 1607 	call	_tilemap_render
                           1608 ;src/game.c:289: for (i = 0; i < MAX_PROJECTILES; ++i) {
   09BB 0E 00         [ 7] 1609 	ld	c, #0x00
   09BD                    1610 00115$:
                           1611 ;src/game.c:290: projectilerender(&g_projectiles[i]);
   09BD 06 00         [ 7] 1612 	ld	b,#0x00
   09BF 69            [ 4] 1613 	ld	l, c
   09C0 60            [ 4] 1614 	ld	h, b
   09C1 29            [11] 1615 	add	hl, hl
   09C2 29            [11] 1616 	add	hl, hl
   09C3 09            [11] 1617 	add	hl, bc
   09C4 29            [11] 1618 	add	hl, hl
   09C5 11r45r00      [10] 1619 	ld	de, #_g_projectiles
   09C8 19            [11] 1620 	add	hl, de
   09C9 C5            [11] 1621 	push	bc
   09CA E5            [11] 1622 	push	hl
   09CB CDr00r00      [17] 1623 	call	_projectilerender
   09CE F1            [10] 1624 	pop	af
   09CF C1            [10] 1625 	pop	bc
                           1626 ;src/game.c:289: for (i = 0; i < MAX_PROJECTILES; ++i) {
   09D0 0C            [ 4] 1627 	inc	c
   09D1 79            [ 4] 1628 	ld	a, c
   09D2 D6 06         [ 7] 1629 	sub	a, #0x06
   09D4 38 E7         [12] 1630 	jr	C,00115$
                           1631 ;src/game.c:293: for (i = 0; i < MAX_ENEMIES; ++i) {
   09D6 0E 00         [ 7] 1632 	ld	c, #0x00
   09D8                    1633 00117$:
                           1634 ;src/game.c:294: enemyrender(&g_enemies[i]);
   09D8 06 00         [ 7] 1635 	ld	b,#0x00
   09DA 69            [ 4] 1636 	ld	l, c
   09DB 60            [ 4] 1637 	ld	h, b
   09DC 29            [11] 1638 	add	hl, hl
   09DD 29            [11] 1639 	add	hl, hl
   09DE 09            [11] 1640 	add	hl, bc
   09DF 29            [11] 1641 	add	hl, hl
   09E0 11r09r00      [10] 1642 	ld	de, #_g_enemies
   09E3 19            [11] 1643 	add	hl, de
   09E4 C5            [11] 1644 	push	bc
   09E5 E5            [11] 1645 	push	hl
   09E6 CDr00r00      [17] 1646 	call	_enemyrender
   09E9 F1            [10] 1647 	pop	af
   09EA C1            [10] 1648 	pop	bc
                           1649 ;src/game.c:293: for (i = 0; i < MAX_ENEMIES; ++i) {
   09EB 0C            [ 4] 1650 	inc	c
   09EC 79            [ 4] 1651 	ld	a, c
   09ED D6 06         [ 7] 1652 	sub	a, #0x06
   09EF 38 E7         [12] 1653 	jr	C,00117$
                           1654 ;src/game.c:297: if (g_bossactive) {
   09F1 3Ar9Cr00      [13] 1655 	ld	a,(#_g_bossactive + 0)
   09F4 B7            [ 4] 1656 	or	a, a
   09F5 28 45         [12] 1657 	jr	Z,00104$
                           1658 ;src/game.c:298: enemyrender(&g_boss);
   09F7 21r92r00      [10] 1659 	ld	hl, #_g_boss
   09FA E5            [11] 1660 	push	hl
   09FB CDr00r00      [17] 1661 	call	_enemyrender
                           1662 ;src/game.c:299: cpct_drawSolidBox(cpct_getScreenPtr(CPCT_VMEM_START, 24, 10), 0x44, 32, 2);
   09FE 21 18 0A      [10] 1663 	ld	hl, #0x0a18
   0A01 E3            [19] 1664 	ex	(sp),hl
   0A02 21 00 C0      [10] 1665 	ld	hl, #0xc000
   0A05 E5            [11] 1666 	push	hl
   0A06 CDr00r00      [17] 1667 	call	_cpct_getScreenPtr
   0A09 01 20 02      [10] 1668 	ld	bc, #0x0220
   0A0C C5            [11] 1669 	push	bc
   0A0D 3E 44         [ 7] 1670 	ld	a, #0x44
   0A0F F5            [11] 1671 	push	af
   0A10 33            [ 6] 1672 	inc	sp
   0A11 E5            [11] 1673 	push	hl
   0A12 CDr00r00      [17] 1674 	call	_cpct_drawSolidBox
   0A15 F1            [10] 1675 	pop	af
   0A16 F1            [10] 1676 	pop	af
   0A17 33            [ 6] 1677 	inc	sp
                           1678 ;src/game.c:300: cpct_drawSolidBox(cpct_getScreenPtr(CPCT_VMEM_START, 24, 10), 0x5C, (u8)(g_boss.health * 3), 2);
   0A18 3Ar99r00      [13] 1679 	ld	a, (#_g_boss + 7)
   0A1B 4F            [ 4] 1680 	ld	c, a
   0A1C 87            [ 4] 1681 	add	a, a
   0A1D 81            [ 4] 1682 	add	a, c
   0A1E 57            [ 4] 1683 	ld	d, a
   0A1F D5            [11] 1684 	push	de
   0A20 21 18 0A      [10] 1685 	ld	hl, #0x0a18
   0A23 E5            [11] 1686 	push	hl
   0A24 21 00 C0      [10] 1687 	ld	hl, #0xc000
   0A27 E5            [11] 1688 	push	hl
   0A28 CDr00r00      [17] 1689 	call	_cpct_getScreenPtr
   0A2B 4D            [ 4] 1690 	ld	c, l
   0A2C 44            [ 4] 1691 	ld	b, h
   0A2D D1            [10] 1692 	pop	de
   0A2E 3E 02         [ 7] 1693 	ld	a, #0x02
   0A30 F5            [11] 1694 	push	af
   0A31 33            [ 6] 1695 	inc	sp
   0A32 1E 5C         [ 7] 1696 	ld	e, #0x5c
   0A34 D5            [11] 1697 	push	de
   0A35 C5            [11] 1698 	push	bc
   0A36 CDr00r00      [17] 1699 	call	_cpct_drawSolidBox
   0A39 F1            [10] 1700 	pop	af
   0A3A F1            [10] 1701 	pop	af
   0A3B 33            [ 6] 1702 	inc	sp
   0A3C                    1703 00104$:
                           1704 ;src/game.c:303: if (!g_pickuptaken) {
   0A3C 3Ar9Fr00      [13] 1705 	ld	a,(#_g_pickuptaken + 0)
   0A3F B7            [ 4] 1706 	or	a, a
   0A40 20 23         [12] 1707 	jr	NZ,00106$
                           1708 ;src/game.c:304: cpct_drawSolidBox(cpct_getScreenPtr(CPCT_VMEM_START, 36, (u8)(tilemap_ground_y() - 8)), 0xEE, 4, 4);
   0A42 CDr00r00      [17] 1709 	call	_tilemap_ground_y
   0A45 7D            [ 4] 1710 	ld	a, l
   0A46 C6 F8         [ 7] 1711 	add	a, #0xf8
   0A48 47            [ 4] 1712 	ld	b, a
   0A49 C5            [11] 1713 	push	bc
   0A4A 33            [ 6] 1714 	inc	sp
   0A4B 3E 24         [ 7] 1715 	ld	a, #0x24
   0A4D F5            [11] 1716 	push	af
   0A4E 33            [ 6] 1717 	inc	sp
   0A4F 21 00 C0      [10] 1718 	ld	hl, #0xc000
   0A52 E5            [11] 1719 	push	hl
   0A53 CDr00r00      [17] 1720 	call	_cpct_getScreenPtr
   0A56 01 04 04      [10] 1721 	ld	bc, #0x0404
   0A59 C5            [11] 1722 	push	bc
   0A5A 3E EE         [ 7] 1723 	ld	a, #0xee
   0A5C F5            [11] 1724 	push	af
   0A5D 33            [ 6] 1725 	inc	sp
   0A5E E5            [11] 1726 	push	hl
   0A5F CDr00r00      [17] 1727 	call	_cpct_drawSolidBox
   0A62 F1            [10] 1728 	pop	af
   0A63 F1            [10] 1729 	pop	af
   0A64 33            [ 6] 1730 	inc	sp
   0A65                    1731 00106$:
                           1732 ;src/game.c:306: playerrender(&g_player);
   0A65 21r00r00      [10] 1733 	ld	hl, #_g_player
   0A68 E5            [11] 1734 	push	hl
   0A69 CDr00r00      [17] 1735 	call	_playerrender
   0A6C F1            [10] 1736 	pop	af
                           1737 ;src/game.c:307: hudrender();
   0A6D CDr00r00      [17] 1738 	call	_hudrender
                           1739 ;src/game.c:309: if (g_victory) {
   0A70 3Ar8Br00      [13] 1740 	ld	a,(#_g_victory + 0)
   0A73 B7            [ 4] 1741 	or	a, a
   0A74 28 34         [12] 1742 	jr	Z,00113$
                           1743 ;src/game.c:310: cpct_drawSolidBox(cpct_getScreenPtr(CPCT_VMEM_START, 24, 68), 0x5A, 32, 12);
   0A76 21 18 44      [10] 1744 	ld	hl, #0x4418
   0A79 E5            [11] 1745 	push	hl
   0A7A 21 00 C0      [10] 1746 	ld	hl, #0xc000
   0A7D E5            [11] 1747 	push	hl
   0A7E CDr00r00      [17] 1748 	call	_cpct_getScreenPtr
   0A81 01 20 0C      [10] 1749 	ld	bc, #0x0c20
   0A84 C5            [11] 1750 	push	bc
   0A85 3E 5A         [ 7] 1751 	ld	a, #0x5a
   0A87 F5            [11] 1752 	push	af
   0A88 33            [ 6] 1753 	inc	sp
   0A89 E5            [11] 1754 	push	hl
   0A8A CDr00r00      [17] 1755 	call	_cpct_drawSolidBox
   0A8D F1            [10] 1756 	pop	af
                           1757 ;src/game.c:311: cpct_drawSolidBox(cpct_getScreenPtr(CPCT_VMEM_START, 28, 72), 0x5C, 24, 8);
   0A8E 33            [ 6] 1758 	inc	sp
   0A8F 21 1C 48      [10] 1759 	ld	hl,#0x481c
   0A92 E3            [19] 1760 	ex	(sp),hl
   0A93 21 00 C0      [10] 1761 	ld	hl, #0xc000
   0A96 E5            [11] 1762 	push	hl
   0A97 CDr00r00      [17] 1763 	call	_cpct_getScreenPtr
   0A9A 01 18 08      [10] 1764 	ld	bc, #0x0818
   0A9D C5            [11] 1765 	push	bc
   0A9E 3E 5C         [ 7] 1766 	ld	a, #0x5c
   0AA0 F5            [11] 1767 	push	af
   0AA1 33            [ 6] 1768 	inc	sp
   0AA2 E5            [11] 1769 	push	hl
   0AA3 CDr00r00      [17] 1770 	call	_cpct_drawSolidBox
   0AA6 F1            [10] 1771 	pop	af
   0AA7 F1            [10] 1772 	pop	af
   0AA8 33            [ 6] 1773 	inc	sp
   0AA9 C9            [10] 1774 	ret
   0AAA                    1775 00113$:
                           1776 ;src/game.c:312: } else if (g_gameover) {
   0AAA 3Ar8Cr00      [13] 1777 	ld	a,(#_g_gameover + 0)
   0AAD B7            [ 4] 1778 	or	a, a
   0AAE 28 34         [12] 1779 	jr	Z,00110$
                           1780 ;src/game.c:313: cpct_drawSolidBox(cpct_getScreenPtr(CPCT_VMEM_START, 24, 68), 0x44, 32, 12);
   0AB0 21 18 44      [10] 1781 	ld	hl, #0x4418
   0AB3 E5            [11] 1782 	push	hl
   0AB4 21 00 C0      [10] 1783 	ld	hl, #0xc000
   0AB7 E5            [11] 1784 	push	hl
   0AB8 CDr00r00      [17] 1785 	call	_cpct_getScreenPtr
   0ABB 01 20 0C      [10] 1786 	ld	bc, #0x0c20
   0ABE C5            [11] 1787 	push	bc
   0ABF 3E 44         [ 7] 1788 	ld	a, #0x44
   0AC1 F5            [11] 1789 	push	af
   0AC2 33            [ 6] 1790 	inc	sp
   0AC3 E5            [11] 1791 	push	hl
   0AC4 CDr00r00      [17] 1792 	call	_cpct_drawSolidBox
   0AC7 F1            [10] 1793 	pop	af
                           1794 ;src/game.c:314: cpct_drawSolidBox(cpct_getScreenPtr(CPCT_VMEM_START, 28, 72), 0x4C, 24, 8);
   0AC8 33            [ 6] 1795 	inc	sp
   0AC9 21 1C 48      [10] 1796 	ld	hl,#0x481c
   0ACC E3            [19] 1797 	ex	(sp),hl
   0ACD 21 00 C0      [10] 1798 	ld	hl, #0xc000
   0AD0 E5            [11] 1799 	push	hl
   0AD1 CDr00r00      [17] 1800 	call	_cpct_getScreenPtr
   0AD4 01 18 08      [10] 1801 	ld	bc, #0x0818
   0AD7 C5            [11] 1802 	push	bc
   0AD8 3E 4C         [ 7] 1803 	ld	a, #0x4c
   0ADA F5            [11] 1804 	push	af
   0ADB 33            [ 6] 1805 	inc	sp
   0ADC E5            [11] 1806 	push	hl
   0ADD CDr00r00      [17] 1807 	call	_cpct_drawSolidBox
   0AE0 F1            [10] 1808 	pop	af
   0AE1 F1            [10] 1809 	pop	af
   0AE2 33            [ 6] 1810 	inc	sp
   0AE3 C9            [10] 1811 	ret
   0AE4                    1812 00110$:
                           1813 ;src/game.c:315: } else if (g_checkpointactive) {
   0AE4 3Ar91r00      [13] 1814 	ld	a,(#_g_checkpointactive + 0)
   0AE7 B7            [ 4] 1815 	or	a, a
   0AE8 C8            [11] 1816 	ret	Z
                           1817 ;src/game.c:316: cpct_drawSolidBox(cpct_getScreenPtr(CPCT_VMEM_START, g_checkpointx, (u8)(g_checkpointy - 8)), 0x3A, 2, 8);
   0AE9 3Ar90r00      [13] 1818 	ld	a,(#_g_checkpointy + 0)
   0AEC C6 F8         [ 7] 1819 	add	a, #0xf8
   0AEE 47            [ 4] 1820 	ld	b, a
   0AEF C5            [11] 1821 	push	bc
   0AF0 33            [ 6] 1822 	inc	sp
   0AF1 3Ar8Fr00      [13] 1823 	ld	a, (_g_checkpointx)
   0AF4 F5            [11] 1824 	push	af
   0AF5 33            [ 6] 1825 	inc	sp
   0AF6 21 00 C0      [10] 1826 	ld	hl, #0xc000
   0AF9 E5            [11] 1827 	push	hl
   0AFA CDr00r00      [17] 1828 	call	_cpct_getScreenPtr
   0AFD 01 02 08      [10] 1829 	ld	bc, #0x0802
   0B00 C5            [11] 1830 	push	bc
   0B01 3E 3A         [ 7] 1831 	ld	a, #0x3a
   0B03 F5            [11] 1832 	push	af
   0B04 33            [ 6] 1833 	inc	sp
   0B05 E5            [11] 1834 	push	hl
   0B06 CDr00r00      [17] 1835 	call	_cpct_drawSolidBox
   0B09 F1            [10] 1836 	pop	af
   0B0A F1            [10] 1837 	pop	af
   0B0B 33            [ 6] 1838 	inc	sp
   0B0C C9            [10] 1839 	ret
                           1840 	.area _CODE
                           1841 	.area _INITIALIZER
                           1842 	.area _CABS (ABS)
