                              1 ;--------------------------------------------------------
                              2 ; File Created by SDCC : free open source ANSI-C Compiler
                              3 ; Version 3.6.8 #9946 (Mac OS X ppc)
                              4 ;--------------------------------------------------------
                              5 	.module enemy
                              6 	.optsdcc -mz80
                              7 	
                              8 ;--------------------------------------------------------
                              9 ; Public variables in this module
                             10 ;--------------------------------------------------------
                             11 	.globl _collision_clamp_y_at
                             12 	.globl _collision_is_on_ground_at
                             13 	.globl _cpct_getScreenPtr
                             14 	.globl _cpct_drawSolidBox
                             15 	.globl _enemyinit
                             16 	.globl _enemyspawn
                             17 	.globl _enemyupdate
                             18 	.globl _enemyrender
                             19 	.globl _enemydamage
                             20 ;--------------------------------------------------------
                             21 ; special function registers
                             22 ;--------------------------------------------------------
                             23 ;--------------------------------------------------------
                             24 ; ram data
                             25 ;--------------------------------------------------------
                             26 	.area _DATA
                             27 ;--------------------------------------------------------
                             28 ; ram data
                             29 ;--------------------------------------------------------
                             30 	.area _INITIALIZED
                             31 ;--------------------------------------------------------
                             32 ; absolute external ram data
                             33 ;--------------------------------------------------------
                             34 	.area _DABS (ABS)
                             35 ;--------------------------------------------------------
                             36 ; global & static initialisations
                             37 ;--------------------------------------------------------
                             38 	.area _HOME
                             39 	.area _GSINIT
                             40 	.area _GSFINAL
                             41 	.area _GSINIT
                             42 ;--------------------------------------------------------
                             43 ; Home
                             44 ;--------------------------------------------------------
                             45 	.area _HOME
                             46 	.area _HOME
                             47 ;--------------------------------------------------------
                             48 ; code
                             49 ;--------------------------------------------------------
                             50 	.area _CODE
                             51 ;src/entities/enemy.c:5: void enemyinit(Enemy* enemy) {
                             52 ;	---------------------------------
                             53 ; Function enemyinit
                             54 ; ---------------------------------
   0000                      55 _enemyinit::
                             56 ;src/entities/enemy.c:6: if (!enemy) {
   0000 21 03 00      [10]   57 	ld	hl, #2+1
   0003 39            [11]   58 	add	hl, sp
   0004 7E            [ 7]   59 	ld	a, (hl)
   0005 2B            [ 6]   60 	dec	hl
   0006 B6            [ 7]   61 	or	a,(hl)
                             62 ;src/entities/enemy.c:7: return;
   0007 C8            [11]   63 	ret	Z
                             64 ;src/entities/enemy.c:10: enemy->x = 0;
   0008 D1            [10]   65 	pop	de
   0009 C1            [10]   66 	pop	bc
   000A C5            [11]   67 	push	bc
   000B D5            [11]   68 	push	de
   000C AF            [ 4]   69 	xor	a, a
   000D 02            [ 7]   70 	ld	(bc), a
                             71 ;src/entities/enemy.c:11: enemy->y = 0;
   000E 59            [ 4]   72 	ld	e, c
   000F 50            [ 4]   73 	ld	d, b
   0010 13            [ 6]   74 	inc	de
   0011 AF            [ 4]   75 	xor	a, a
   0012 12            [ 7]   76 	ld	(de), a
                             77 ;src/entities/enemy.c:12: enemy->vx = 0;
   0013 59            [ 4]   78 	ld	e, c
   0014 50            [ 4]   79 	ld	d, b
   0015 13            [ 6]   80 	inc	de
   0016 13            [ 6]   81 	inc	de
   0017 AF            [ 4]   82 	xor	a, a
   0018 12            [ 7]   83 	ld	(de), a
                             84 ;src/entities/enemy.c:13: enemy->vy = 0;
   0019 59            [ 4]   85 	ld	e, c
   001A 50            [ 4]   86 	ld	d, b
   001B 13            [ 6]   87 	inc	de
   001C 13            [ 6]   88 	inc	de
   001D 13            [ 6]   89 	inc	de
   001E AF            [ 4]   90 	xor	a, a
   001F 12            [ 7]   91 	ld	(de), a
                             92 ;src/entities/enemy.c:14: enemy->w = 4;
   0020 21 04 00      [10]   93 	ld	hl, #0x0004
   0023 09            [11]   94 	add	hl, bc
   0024 36 04         [10]   95 	ld	(hl), #0x04
                             96 ;src/entities/enemy.c:15: enemy->h = 16;
   0026 21 05 00      [10]   97 	ld	hl, #0x0005
   0029 09            [11]   98 	add	hl, bc
   002A 36 10         [10]   99 	ld	(hl), #0x10
                            100 ;src/entities/enemy.c:16: enemy->active = 0;
   002C 21 06 00      [10]  101 	ld	hl, #0x0006
   002F 09            [11]  102 	add	hl, bc
   0030 36 00         [10]  103 	ld	(hl), #0x00
                            104 ;src/entities/enemy.c:17: enemy->health = 1;
   0032 21 07 00      [10]  105 	ld	hl, #0x0007
   0035 09            [11]  106 	add	hl, bc
   0036 36 01         [10]  107 	ld	(hl), #0x01
                            108 ;src/entities/enemy.c:18: enemy->reward = 100;
   0038 21 08 00      [10]  109 	ld	hl, #0x0008
   003B 09            [11]  110 	add	hl, bc
   003C 36 64         [10]  111 	ld	(hl), #0x64
                            112 ;src/entities/enemy.c:19: enemy->kind = 0;
   003E 21 09 00      [10]  113 	ld	hl, #0x0009
   0041 09            [11]  114 	add	hl, bc
   0042 36 00         [10]  115 	ld	(hl), #0x00
   0044 C9            [10]  116 	ret
                            117 ;src/entities/enemy.c:22: void enemyspawn(Enemy* enemy, u8 x, u8 y, u8 kind, u8 move_right) {
                            118 ;	---------------------------------
                            119 ; Function enemyspawn
                            120 ; ---------------------------------
   0045                     121 _enemyspawn::
   0045 DD E5         [15]  122 	push	ix
   0047 DD 21 00 00   [14]  123 	ld	ix,#0
   004B DD 39         [15]  124 	add	ix,sp
   004D 21 F1 FF      [10]  125 	ld	hl, #-15
   0050 39            [11]  126 	add	hl, sp
   0051 F9            [ 6]  127 	ld	sp, hl
                            128 ;src/entities/enemy.c:23: if (!enemy) {
   0052 DD 7E 05      [19]  129 	ld	a, 5 (ix)
   0055 DD B6 04      [19]  130 	or	a,4 (ix)
                            131 ;src/entities/enemy.c:24: return;
   0058 CAr18r02      [10]  132 	jp	Z,00112$
                            133 ;src/entities/enemy.c:27: enemy->x = x;
   005B DD 7E 04      [19]  134 	ld	a, 4 (ix)
   005E DD 77 FE      [19]  135 	ld	-2 (ix), a
   0061 DD 7E 05      [19]  136 	ld	a, 5 (ix)
   0064 DD 77 FF      [19]  137 	ld	-1 (ix), a
   0067 DD 6E FE      [19]  138 	ld	l,-2 (ix)
   006A DD 66 FF      [19]  139 	ld	h,-1 (ix)
   006D DD 7E 06      [19]  140 	ld	a, 6 (ix)
   0070 77            [ 7]  141 	ld	(hl), a
                            142 ;src/entities/enemy.c:28: enemy->y = y;
   0071 DD 4E FE      [19]  143 	ld	c,-2 (ix)
   0074 DD 46 FF      [19]  144 	ld	b,-1 (ix)
   0077 03            [ 6]  145 	inc	bc
   0078 DD 7E 07      [19]  146 	ld	a, 7 (ix)
   007B 02            [ 7]  147 	ld	(bc), a
                            148 ;src/entities/enemy.c:29: enemy->vx = move_right ? 1 : -1;
   007C DD 7E FE      [19]  149 	ld	a, -2 (ix)
   007F C6 02         [ 7]  150 	add	a, #0x02
   0081 DD 77 FC      [19]  151 	ld	-4 (ix), a
   0084 DD 7E FF      [19]  152 	ld	a, -1 (ix)
   0087 CE 00         [ 7]  153 	adc	a, #0x00
   0089 DD 77 FD      [19]  154 	ld	-3 (ix), a
   008C DD 7E 09      [19]  155 	ld	a, 9 (ix)
   008F B7            [ 4]  156 	or	a, a
   0090 28 04         [12]  157 	jr	Z,00114$
   0092 0E 01         [ 7]  158 	ld	c, #0x01
   0094 18 02         [12]  159 	jr	00115$
   0096                     160 00114$:
   0096 0E FF         [ 7]  161 	ld	c, #0xff
   0098                     162 00115$:
   0098 DD 6E FC      [19]  163 	ld	l,-4 (ix)
   009B DD 66 FD      [19]  164 	ld	h,-3 (ix)
   009E 71            [ 7]  165 	ld	(hl), c
                            166 ;src/entities/enemy.c:30: enemy->vy = 0;
   009F DD 7E FE      [19]  167 	ld	a, -2 (ix)
   00A2 C6 03         [ 7]  168 	add	a, #0x03
   00A4 DD 77 FA      [19]  169 	ld	-6 (ix), a
   00A7 DD 7E FF      [19]  170 	ld	a, -1 (ix)
   00AA CE 00         [ 7]  171 	adc	a, #0x00
   00AC DD 77 FB      [19]  172 	ld	-5 (ix), a
   00AF DD 6E FA      [19]  173 	ld	l,-6 (ix)
   00B2 DD 66 FB      [19]  174 	ld	h,-5 (ix)
   00B5 36 00         [10]  175 	ld	(hl), #0x00
                            176 ;src/entities/enemy.c:31: enemy->active = 1;
   00B7 DD 7E FE      [19]  177 	ld	a, -2 (ix)
   00BA C6 06         [ 7]  178 	add	a, #0x06
   00BC DD 77 F8      [19]  179 	ld	-8 (ix), a
   00BF DD 7E FF      [19]  180 	ld	a, -1 (ix)
   00C2 CE 00         [ 7]  181 	adc	a, #0x00
   00C4 DD 77 F9      [19]  182 	ld	-7 (ix), a
   00C7 DD 6E F8      [19]  183 	ld	l,-8 (ix)
   00CA DD 66 F9      [19]  184 	ld	h,-7 (ix)
   00CD 36 01         [10]  185 	ld	(hl), #0x01
                            186 ;src/entities/enemy.c:32: enemy->kind = kind;
   00CF DD 7E FE      [19]  187 	ld	a, -2 (ix)
   00D2 C6 09         [ 7]  188 	add	a, #0x09
   00D4 DD 77 F8      [19]  189 	ld	-8 (ix), a
   00D7 DD 7E FF      [19]  190 	ld	a, -1 (ix)
   00DA CE 00         [ 7]  191 	adc	a, #0x00
   00DC DD 77 F9      [19]  192 	ld	-7 (ix), a
   00DF DD 6E F8      [19]  193 	ld	l,-8 (ix)
   00E2 DD 66 F9      [19]  194 	ld	h,-7 (ix)
   00E5 DD 7E 08      [19]  195 	ld	a, 8 (ix)
   00E8 77            [ 7]  196 	ld	(hl), a
                            197 ;src/entities/enemy.c:35: enemy->w = 5;
   00E9 DD 7E FE      [19]  198 	ld	a, -2 (ix)
   00EC C6 04         [ 7]  199 	add	a, #0x04
   00EE DD 77 F8      [19]  200 	ld	-8 (ix), a
   00F1 DD 7E FF      [19]  201 	ld	a, -1 (ix)
   00F4 CE 00         [ 7]  202 	adc	a, #0x00
   00F6 DD 77 F9      [19]  203 	ld	-7 (ix), a
                            204 ;src/entities/enemy.c:36: enemy->h = 14;
   00F9 DD 7E FE      [19]  205 	ld	a, -2 (ix)
   00FC C6 05         [ 7]  206 	add	a, #0x05
   00FE DD 77 F6      [19]  207 	ld	-10 (ix), a
   0101 DD 7E FF      [19]  208 	ld	a, -1 (ix)
   0104 CE 00         [ 7]  209 	adc	a, #0x00
   0106 DD 77 F7      [19]  210 	ld	-9 (ix), a
                            211 ;src/entities/enemy.c:37: enemy->health = 2;
   0109 DD 7E FE      [19]  212 	ld	a, -2 (ix)
   010C C6 07         [ 7]  213 	add	a, #0x07
   010E DD 77 F4      [19]  214 	ld	-12 (ix), a
   0111 DD 7E FF      [19]  215 	ld	a, -1 (ix)
   0114 CE 00         [ 7]  216 	adc	a, #0x00
   0116 DD 77 F5      [19]  217 	ld	-11 (ix), a
                            218 ;src/entities/enemy.c:38: enemy->reward = 180;
   0119 DD 7E FE      [19]  219 	ld	a, -2 (ix)
   011C C6 08         [ 7]  220 	add	a, #0x08
   011E DD 77 FE      [19]  221 	ld	-2 (ix), a
   0121 DD 7E FF      [19]  222 	ld	a, -1 (ix)
   0124 CE 00         [ 7]  223 	adc	a, #0x00
   0126 DD 77 FF      [19]  224 	ld	-1 (ix), a
                            225 ;src/entities/enemy.c:34: if (kind == 1) {
   0129 DD 7E 08      [19]  226 	ld	a, 8 (ix)
   012C 3D            [ 4]  227 	dec	a
   012D 20 49         [12]  228 	jr	NZ,00110$
                            229 ;src/entities/enemy.c:35: enemy->w = 5;
   012F DD 6E F8      [19]  230 	ld	l,-8 (ix)
   0132 DD 66 F9      [19]  231 	ld	h,-7 (ix)
   0135 36 05         [10]  232 	ld	(hl), #0x05
                            233 ;src/entities/enemy.c:36: enemy->h = 14;
   0137 DD 6E F6      [19]  234 	ld	l,-10 (ix)
   013A DD 66 F7      [19]  235 	ld	h,-9 (ix)
   013D 36 0E         [10]  236 	ld	(hl), #0x0e
                            237 ;src/entities/enemy.c:37: enemy->health = 2;
   013F DD 6E F4      [19]  238 	ld	l,-12 (ix)
   0142 DD 66 F5      [19]  239 	ld	h,-11 (ix)
   0145 36 02         [10]  240 	ld	(hl), #0x02
                            241 ;src/entities/enemy.c:38: enemy->reward = 180;
   0147 DD 6E FE      [19]  242 	ld	l,-2 (ix)
   014A DD 66 FF      [19]  243 	ld	h,-1 (ix)
   014D 36 B4         [10]  244 	ld	(hl), #0xb4
                            245 ;src/entities/enemy.c:39: enemy->vx = move_right ? 2 : -2;
   014F DD 7E FC      [19]  246 	ld	a, -4 (ix)
   0152 DD 77 F2      [19]  247 	ld	-14 (ix), a
   0155 DD 7E FD      [19]  248 	ld	a, -3 (ix)
   0158 DD 77 F3      [19]  249 	ld	-13 (ix), a
   015B DD 7E 09      [19]  250 	ld	a, 9 (ix)
   015E B7            [ 4]  251 	or	a, a
   015F 28 06         [12]  252 	jr	Z,00116$
   0161 DD 36 F1 02   [19]  253 	ld	-15 (ix), #0x02
   0165 18 04         [12]  254 	jr	00117$
   0167                     255 00116$:
   0167 DD 36 F1 FE   [19]  256 	ld	-15 (ix), #0xfe
   016B                     257 00117$:
   016B DD 6E F2      [19]  258 	ld	l,-14 (ix)
   016E DD 66 F3      [19]  259 	ld	h,-13 (ix)
   0171 DD 7E F1      [19]  260 	ld	a, -15 (ix)
   0174 77            [ 7]  261 	ld	(hl), a
   0175 C3r18r02      [10]  262 	jp	00112$
   0178                     263 00110$:
                            264 ;src/entities/enemy.c:40: } else if (kind == 2) {
   0178 DD 7E 08      [19]  265 	ld	a, 8 (ix)
   017B D6 02         [ 7]  266 	sub	a, #0x02
   017D 20 3D         [12]  267 	jr	NZ,00107$
                            268 ;src/entities/enemy.c:41: enemy->w = 6;
   017F DD 6E F8      [19]  269 	ld	l,-8 (ix)
   0182 DD 66 F9      [19]  270 	ld	h,-7 (ix)
   0185 36 06         [10]  271 	ld	(hl), #0x06
                            272 ;src/entities/enemy.c:42: enemy->h = 10;
   0187 DD 6E F6      [19]  273 	ld	l,-10 (ix)
   018A DD 66 F7      [19]  274 	ld	h,-9 (ix)
   018D 36 0A         [10]  275 	ld	(hl), #0x0a
                            276 ;src/entities/enemy.c:43: enemy->health = 1;
   018F DD 6E F4      [19]  277 	ld	l,-12 (ix)
   0192 DD 66 F5      [19]  278 	ld	h,-11 (ix)
   0195 36 01         [10]  279 	ld	(hl), #0x01
                            280 ;src/entities/enemy.c:44: enemy->reward = 150;
   0197 DD 6E FE      [19]  281 	ld	l,-2 (ix)
   019A DD 66 FF      [19]  282 	ld	h,-1 (ix)
   019D 36 96         [10]  283 	ld	(hl), #0x96
                            284 ;src/entities/enemy.c:45: enemy->vy = move_right ? 1 : -1;
   019F DD 4E FA      [19]  285 	ld	c,-6 (ix)
   01A2 DD 46 FB      [19]  286 	ld	b,-5 (ix)
   01A5 DD 7E 09      [19]  287 	ld	a, 9 (ix)
   01A8 B7            [ 4]  288 	or	a, a
   01A9 28 04         [12]  289 	jr	Z,00118$
   01AB 3E 01         [ 7]  290 	ld	a, #0x01
   01AD 18 02         [12]  291 	jr	00119$
   01AF                     292 00118$:
   01AF 3E FF         [ 7]  293 	ld	a, #0xff
   01B1                     294 00119$:
   01B1 02            [ 7]  295 	ld	(bc), a
                            296 ;src/entities/enemy.c:46: enemy->vx = 1;
   01B2 DD 6E FC      [19]  297 	ld	l,-4 (ix)
   01B5 DD 66 FD      [19]  298 	ld	h,-3 (ix)
   01B8 36 01         [10]  299 	ld	(hl), #0x01
   01BA 18 5C         [12]  300 	jr	00112$
   01BC                     301 00107$:
                            302 ;src/entities/enemy.c:47: } else if (kind == 3) {
   01BC DD 7E 08      [19]  303 	ld	a, 8 (ix)
   01BF D6 03         [ 7]  304 	sub	a, #0x03
   01C1 20 35         [12]  305 	jr	NZ,00104$
                            306 ;src/entities/enemy.c:48: enemy->w = 10;
   01C3 DD 6E F8      [19]  307 	ld	l,-8 (ix)
   01C6 DD 66 F9      [19]  308 	ld	h,-7 (ix)
   01C9 36 0A         [10]  309 	ld	(hl), #0x0a
                            310 ;src/entities/enemy.c:49: enemy->h = 18;
   01CB DD 6E F6      [19]  311 	ld	l,-10 (ix)
   01CE DD 66 F7      [19]  312 	ld	h,-9 (ix)
   01D1 36 12         [10]  313 	ld	(hl), #0x12
                            314 ;src/entities/enemy.c:50: enemy->health = 8;
   01D3 DD 6E F4      [19]  315 	ld	l,-12 (ix)
   01D6 DD 66 F5      [19]  316 	ld	h,-11 (ix)
   01D9 36 08         [10]  317 	ld	(hl), #0x08
                            318 ;src/entities/enemy.c:51: enemy->reward = 800;
   01DB DD 6E FE      [19]  319 	ld	l,-2 (ix)
   01DE DD 66 FF      [19]  320 	ld	h,-1 (ix)
   01E1 36 20         [10]  321 	ld	(hl), #0x20
                            322 ;src/entities/enemy.c:52: enemy->vx = move_right ? 1 : -1;
   01E3 DD 4E FC      [19]  323 	ld	c,-4 (ix)
   01E6 DD 46 FD      [19]  324 	ld	b,-3 (ix)
   01E9 DD 7E 09      [19]  325 	ld	a, 9 (ix)
   01EC B7            [ 4]  326 	or	a, a
   01ED 28 04         [12]  327 	jr	Z,00120$
   01EF 3E 01         [ 7]  328 	ld	a, #0x01
   01F1 18 02         [12]  329 	jr	00121$
   01F3                     330 00120$:
   01F3 3E FF         [ 7]  331 	ld	a, #0xff
   01F5                     332 00121$:
   01F5 02            [ 7]  333 	ld	(bc), a
   01F6 18 20         [12]  334 	jr	00112$
   01F8                     335 00104$:
                            336 ;src/entities/enemy.c:54: enemy->w = 4;
   01F8 DD 6E F8      [19]  337 	ld	l,-8 (ix)
   01FB DD 66 F9      [19]  338 	ld	h,-7 (ix)
   01FE 36 04         [10]  339 	ld	(hl), #0x04
                            340 ;src/entities/enemy.c:55: enemy->h = 16;
   0200 DD 6E F6      [19]  341 	ld	l,-10 (ix)
   0203 DD 66 F7      [19]  342 	ld	h,-9 (ix)
   0206 36 10         [10]  343 	ld	(hl), #0x10
                            344 ;src/entities/enemy.c:56: enemy->health = 1;
   0208 DD 6E F4      [19]  345 	ld	l,-12 (ix)
   020B DD 66 F5      [19]  346 	ld	h,-11 (ix)
   020E 36 01         [10]  347 	ld	(hl), #0x01
                            348 ;src/entities/enemy.c:57: enemy->reward = 100;
   0210 DD 6E FE      [19]  349 	ld	l,-2 (ix)
   0213 DD 66 FF      [19]  350 	ld	h,-1 (ix)
   0216 36 64         [10]  351 	ld	(hl), #0x64
   0218                     352 00112$:
   0218 DD F9         [10]  353 	ld	sp, ix
   021A DD E1         [14]  354 	pop	ix
   021C C9            [10]  355 	ret
                            356 ;src/entities/enemy.c:61: void enemyupdate(Enemy* enemy) {
                            357 ;	---------------------------------
                            358 ; Function enemyupdate
                            359 ; ---------------------------------
   021D                     360 _enemyupdate::
   021D DD E5         [15]  361 	push	ix
   021F DD 21 00 00   [14]  362 	ld	ix,#0
   0223 DD 39         [15]  363 	add	ix,sp
   0225 21 F6 FF      [10]  364 	ld	hl, #-10
   0228 39            [11]  365 	add	hl, sp
   0229 F9            [ 6]  366 	ld	sp, hl
                            367 ;src/entities/enemy.c:65: if (!enemy || !enemy->active) {
   022A DD 7E 05      [19]  368 	ld	a, 5 (ix)
   022D DD B6 04      [19]  369 	or	a,4 (ix)
   0230 CAr13r04      [10]  370 	jp	Z,00121$
   0233 DD 7E 04      [19]  371 	ld	a, 4 (ix)
   0236 DD 77 FE      [19]  372 	ld	-2 (ix), a
   0239 DD 7E 05      [19]  373 	ld	a, 5 (ix)
   023C DD 77 FF      [19]  374 	ld	-1 (ix), a
   023F DD 6E FE      [19]  375 	ld	l,-2 (ix)
   0242 DD 66 FF      [19]  376 	ld	h,-1 (ix)
   0245 11 06 00      [10]  377 	ld	de, #0x0006
   0248 19            [11]  378 	add	hl, de
   0249 7E            [ 7]  379 	ld	a, (hl)
   024A B7            [ 4]  380 	or	a, a
                            381 ;src/entities/enemy.c:66: return;
   024B CAr13r04      [10]  382 	jp	Z,00121$
                            383 ;src/entities/enemy.c:69: if (enemy->kind == 2) {
   024E DD 6E FE      [19]  384 	ld	l,-2 (ix)
   0251 DD 66 FF      [19]  385 	ld	h,-1 (ix)
   0254 11 09 00      [10]  386 	ld	de, #0x0009
   0257 19            [11]  387 	add	hl, de
   0258 7E            [ 7]  388 	ld	a, (hl)
   0259 DD 77 FB      [19]  389 	ld	-5 (ix), a
                            390 ;src/entities/enemy.c:70: nextx = (i16)enemy->x + (i16)enemy->vx;
   025C DD 6E FE      [19]  391 	ld	l,-2 (ix)
   025F DD 66 FF      [19]  392 	ld	h,-1 (ix)
   0262 4E            [ 7]  393 	ld	c, (hl)
   0263 DD 7E FE      [19]  394 	ld	a, -2 (ix)
   0266 C6 02         [ 7]  395 	add	a, #0x02
   0268 DD 77 FC      [19]  396 	ld	-4 (ix), a
   026B DD 7E FF      [19]  397 	ld	a, -1 (ix)
   026E CE 00         [ 7]  398 	adc	a, #0x00
   0270 DD 77 FD      [19]  399 	ld	-3 (ix), a
                            400 ;src/entities/enemy.c:71: nexty = (i16)enemy->y + (i16)enemy->vy;
   0273 DD 7E FE      [19]  401 	ld	a, -2 (ix)
   0276 C6 01         [ 7]  402 	add	a, #0x01
   0278 DD 77 F9      [19]  403 	ld	-7 (ix), a
   027B DD 7E FF      [19]  404 	ld	a, -1 (ix)
   027E CE 00         [ 7]  405 	adc	a, #0x00
   0280 DD 77 FA      [19]  406 	ld	-6 (ix), a
   0283 DD 5E FE      [19]  407 	ld	e,-2 (ix)
   0286 DD 56 FF      [19]  408 	ld	d,-1 (ix)
   0289 13            [ 6]  409 	inc	de
   028A 13            [ 6]  410 	inc	de
   028B 13            [ 6]  411 	inc	de
                            412 ;src/entities/enemy.c:70: nextx = (i16)enemy->x + (i16)enemy->vx;
   028C 06 00         [ 7]  413 	ld	b, #0x00
   028E DD 6E FC      [19]  414 	ld	l,-4 (ix)
   0291 DD 66 FD      [19]  415 	ld	h,-3 (ix)
   0294 7E            [ 7]  416 	ld	a, (hl)
   0295 DD 77 F8      [19]  417 	ld	-8 (ix), a
   0298 6F            [ 4]  418 	ld	l, a
   0299 DD 7E F8      [19]  419 	ld	a, -8 (ix)
   029C 17            [ 4]  420 	rla
   029D 9F            [ 4]  421 	sbc	a, a
   029E 67            [ 4]  422 	ld	h, a
   029F 09            [11]  423 	add	hl,bc
   02A0 4D            [ 4]  424 	ld	c, l
   02A1 44            [ 4]  425 	ld	b, h
                            426 ;src/entities/enemy.c:69: if (enemy->kind == 2) {
   02A2 DD 7E FB      [19]  427 	ld	a, -5 (ix)
   02A5 D6 02         [ 7]  428 	sub	a, #0x02
   02A7 C2r50r03      [10]  429 	jp	NZ,00111$
                            430 ;src/entities/enemy.c:70: nextx = (i16)enemy->x + (i16)enemy->vx;
                            431 ;src/entities/enemy.c:71: nexty = (i16)enemy->y + (i16)enemy->vy;
   02AA DD 6E F9      [19]  432 	ld	l,-7 (ix)
   02AD DD 66 FA      [19]  433 	ld	h,-6 (ix)
   02B0 6E            [ 7]  434 	ld	l, (hl)
   02B1 DD 75 F6      [19]  435 	ld	-10 (ix), l
   02B4 DD 36 F7 00   [19]  436 	ld	-9 (ix), #0x00
   02B8 1A            [ 7]  437 	ld	a, (de)
   02B9 6F            [ 4]  438 	ld	l, a
   02BA 17            [ 4]  439 	rla
   02BB 9F            [ 4]  440 	sbc	a, a
   02BC 67            [ 4]  441 	ld	h, a
   02BD DD 7E F6      [19]  442 	ld	a, -10 (ix)
   02C0 85            [ 4]  443 	add	a, l
   02C1 DD 77 F6      [19]  444 	ld	-10 (ix), a
   02C4 DD 7E F7      [19]  445 	ld	a, -9 (ix)
   02C7 8C            [ 4]  446 	adc	a, h
   02C8 DD 77 F7      [19]  447 	ld	-9 (ix), a
                            448 ;src/entities/enemy.c:73: if (nextx < 8 || nextx > 72) {
   02CB 79            [ 4]  449 	ld	a, c
   02CC D6 08         [ 7]  450 	sub	a, #0x08
   02CE 78            [ 4]  451 	ld	a, b
   02CF 17            [ 4]  452 	rla
   02D0 3F            [ 4]  453 	ccf
   02D1 1F            [ 4]  454 	rra
   02D2 DE 80         [ 7]  455 	sbc	a, #0x80
   02D4 38 0E         [12]  456 	jr	C,00104$
   02D6 3E 48         [ 7]  457 	ld	a, #0x48
   02D8 B9            [ 4]  458 	cp	a, c
   02D9 3E 00         [ 7]  459 	ld	a, #0x00
   02DB 98            [ 4]  460 	sbc	a, b
   02DC E2rE1r02      [10]  461 	jp	PO, 00161$
   02DF EE 80         [ 7]  462 	xor	a, #0x80
   02E1                     463 00161$:
   02E1 F2rFFr02      [10]  464 	jp	P, 00105$
   02E4                     465 00104$:
                            466 ;src/entities/enemy.c:74: enemy->vx = (i8)(-enemy->vx);
   02E4 AF            [ 4]  467 	xor	a, a
   02E5 DD 96 F8      [19]  468 	sub	a, -8 (ix)
   02E8 4F            [ 4]  469 	ld	c, a
   02E9 DD 6E FC      [19]  470 	ld	l,-4 (ix)
   02EC DD 66 FD      [19]  471 	ld	h,-3 (ix)
   02EF 71            [ 7]  472 	ld	(hl), c
                            473 ;src/entities/enemy.c:75: nextx = (i16)enemy->x + (i16)enemy->vx;
   02F0 DD 6E FE      [19]  474 	ld	l,-2 (ix)
   02F3 DD 66 FF      [19]  475 	ld	h,-1 (ix)
   02F6 6E            [ 7]  476 	ld	l, (hl)
   02F7 26 00         [ 7]  477 	ld	h, #0x00
   02F9 79            [ 4]  478 	ld	a, c
   02FA 17            [ 4]  479 	rla
   02FB 9F            [ 4]  480 	sbc	a, a
   02FC 47            [ 4]  481 	ld	b, a
   02FD 09            [11]  482 	add	hl,bc
   02FE 4D            [ 4]  483 	ld	c, l
   02FF                     484 00105$:
                            485 ;src/entities/enemy.c:77: if (nexty < 56 || nexty > 120) {
   02FF DD 7E F6      [19]  486 	ld	a, -10 (ix)
   0302 D6 38         [ 7]  487 	sub	a, #0x38
   0304 DD 7E F7      [19]  488 	ld	a, -9 (ix)
   0307 17            [ 4]  489 	rla
   0308 3F            [ 4]  490 	ccf
   0309 1F            [ 4]  491 	rra
   030A DE 80         [ 7]  492 	sbc	a, #0x80
   030C 38 12         [12]  493 	jr	C,00107$
   030E 3E 78         [ 7]  494 	ld	a, #0x78
   0310 DD BE F6      [19]  495 	cp	a, -10 (ix)
   0313 3E 00         [ 7]  496 	ld	a, #0x00
   0315 DD 9E F7      [19]  497 	sbc	a, -9 (ix)
   0318 E2r1Dr03      [10]  498 	jp	PO, 00162$
   031B EE 80         [ 7]  499 	xor	a, #0x80
   031D                     500 00162$:
   031D F2r3Cr03      [10]  501 	jp	P, 00108$
   0320                     502 00107$:
                            503 ;src/entities/enemy.c:78: enemy->vy = (i8)(-enemy->vy);
   0320 1A            [ 7]  504 	ld	a, (de)
   0321 6F            [ 4]  505 	ld	l, a
   0322 AF            [ 4]  506 	xor	a, a
   0323 95            [ 4]  507 	sub	a, l
   0324 DD 77 F8      [19]  508 	ld	-8 (ix), a
   0327 12            [ 7]  509 	ld	(de),a
                            510 ;src/entities/enemy.c:79: nexty = (i16)enemy->y + (i16)enemy->vy;
   0328 DD 6E F9      [19]  511 	ld	l,-7 (ix)
   032B DD 66 FA      [19]  512 	ld	h,-6 (ix)
   032E 5E            [ 7]  513 	ld	e, (hl)
   032F 16 00         [ 7]  514 	ld	d, #0x00
   0331 DD 6E F8      [19]  515 	ld	l, -8 (ix)
   0334 DD 7E F8      [19]  516 	ld	a, -8 (ix)
   0337 17            [ 4]  517 	rla
   0338 9F            [ 4]  518 	sbc	a, a
   0339 67            [ 4]  519 	ld	h, a
   033A 19            [11]  520 	add	hl,de
   033B E3            [19]  521 	ex	(sp), hl
   033C                     522 00108$:
                            523 ;src/entities/enemy.c:82: enemy->x = (u8)nextx;
   033C DD 6E FE      [19]  524 	ld	l,-2 (ix)
   033F DD 66 FF      [19]  525 	ld	h,-1 (ix)
   0342 71            [ 7]  526 	ld	(hl), c
                            527 ;src/entities/enemy.c:83: enemy->y = (u8)nexty;
   0343 DD 4E F6      [19]  528 	ld	c, -10 (ix)
   0346 DD 6E F9      [19]  529 	ld	l,-7 (ix)
   0349 DD 66 FA      [19]  530 	ld	h,-6 (ix)
   034C 71            [ 7]  531 	ld	(hl), c
                            532 ;src/entities/enemy.c:84: return;
   034D C3r13r04      [10]  533 	jp	00121$
   0350                     534 00111$:
                            535 ;src/entities/enemy.c:87: nextx = (i16)enemy->x + (i16)enemy->vx;
                            536 ;src/entities/enemy.c:88: if (nextx < 2) {
   0350 79            [ 4]  537 	ld	a, c
   0351 D6 02         [ 7]  538 	sub	a, #0x02
   0353 78            [ 4]  539 	ld	a, b
   0354 17            [ 4]  540 	rla
   0355 3F            [ 4]  541 	ccf
   0356 1F            [ 4]  542 	rra
   0357 DE 80         [ 7]  543 	sbc	a, #0x80
   0359 30 0B         [12]  544 	jr	NC,00113$
                            545 ;src/entities/enemy.c:89: nextx = 2;
   035B 01 02 00      [10]  546 	ld	bc, #0x0002
                            547 ;src/entities/enemy.c:90: enemy->vx = 1;
   035E DD 6E FC      [19]  548 	ld	l,-4 (ix)
   0361 DD 66 FD      [19]  549 	ld	h,-3 (ix)
   0364 36 01         [10]  550 	ld	(hl), #0x01
   0366                     551 00113$:
                            552 ;src/entities/enemy.c:92: if (nextx > 74) {
   0366 3E 4A         [ 7]  553 	ld	a, #0x4a
   0368 B9            [ 4]  554 	cp	a, c
   0369 3E 00         [ 7]  555 	ld	a, #0x00
   036B 98            [ 4]  556 	sbc	a, b
   036C E2r71r03      [10]  557 	jp	PO, 00163$
   036F EE 80         [ 7]  558 	xor	a, #0x80
   0371                     559 00163$:
   0371 F2r7Fr03      [10]  560 	jp	P, 00115$
                            561 ;src/entities/enemy.c:93: nextx = 74;
   0374 01 4A 00      [10]  562 	ld	bc, #0x004a
                            563 ;src/entities/enemy.c:94: enemy->vx = -1;
   0377 DD 6E FC      [19]  564 	ld	l,-4 (ix)
   037A DD 66 FD      [19]  565 	ld	h,-3 (ix)
   037D 36 FF         [10]  566 	ld	(hl), #0xff
   037F                     567 00115$:
                            568 ;src/entities/enemy.c:96: enemy->x = (u8)nextx;
   037F DD 6E FE      [19]  569 	ld	l,-2 (ix)
   0382 DD 66 FF      [19]  570 	ld	h,-1 (ix)
   0385 71            [ 7]  571 	ld	(hl), c
                            572 ;src/entities/enemy.c:98: enemy->vy = (i8)(enemy->vy + 1);
   0386 1A            [ 7]  573 	ld	a, (de)
   0387 4F            [ 4]  574 	ld	c, a
   0388 0C            [ 4]  575 	inc	c
   0389 79            [ 4]  576 	ld	a, c
   038A 12            [ 7]  577 	ld	(de), a
                            578 ;src/entities/enemy.c:99: if (enemy->vy > 3) enemy->vy = 3;
   038B 3E 03         [ 7]  579 	ld	a, #0x03
   038D 91            [ 4]  580 	sub	a, c
   038E E2r93r03      [10]  581 	jp	PO, 00164$
   0391 EE 80         [ 7]  582 	xor	a, #0x80
   0393                     583 00164$:
   0393 F2r99r03      [10]  584 	jp	P, 00117$
   0396 3E 03         [ 7]  585 	ld	a, #0x03
   0398 12            [ 7]  586 	ld	(de), a
   0399                     587 00117$:
                            588 ;src/entities/enemy.c:100: nexty = (i16)enemy->y + (i16)enemy->vy;
   0399 DD 6E F9      [19]  589 	ld	l,-7 (ix)
   039C DD 66 FA      [19]  590 	ld	h,-6 (ix)
   039F 4E            [ 7]  591 	ld	c, (hl)
   03A0 06 00         [ 7]  592 	ld	b, #0x00
   03A2 1A            [ 7]  593 	ld	a, (de)
   03A3 6F            [ 4]  594 	ld	l, a
   03A4 17            [ 4]  595 	rla
   03A5 9F            [ 4]  596 	sbc	a, a
   03A6 67            [ 4]  597 	ld	h, a
   03A7 09            [11]  598 	add	hl, bc
   03A8 E5            [11]  599 	push	hl
   03A9 FD E1         [14]  600 	pop	iy
                            601 ;src/entities/enemy.c:101: nexty = collision_clamp_y_at((i16)enemy->x, nexty, enemy->h);
   03AB DD 7E FE      [19]  602 	ld	a, -2 (ix)
   03AE C6 05         [ 7]  603 	add	a, #0x05
   03B0 DD 77 F6      [19]  604 	ld	-10 (ix), a
   03B3 DD 7E FF      [19]  605 	ld	a, -1 (ix)
   03B6 CE 00         [ 7]  606 	adc	a, #0x00
   03B8 DD 77 F7      [19]  607 	ld	-9 (ix), a
   03BB E1            [10]  608 	pop	hl
   03BC E5            [11]  609 	push	hl
   03BD 7E            [ 7]  610 	ld	a, (hl)
   03BE DD 6E FE      [19]  611 	ld	l,-2 (ix)
   03C1 DD 66 FF      [19]  612 	ld	h,-1 (ix)
   03C4 4E            [ 7]  613 	ld	c, (hl)
   03C5 06 00         [ 7]  614 	ld	b, #0x00
   03C7 D5            [11]  615 	push	de
   03C8 F5            [11]  616 	push	af
   03C9 33            [ 6]  617 	inc	sp
   03CA FD E5         [15]  618 	push	iy
   03CC C5            [11]  619 	push	bc
   03CD CDr00r00      [17]  620 	call	_collision_clamp_y_at
   03D0 F1            [10]  621 	pop	af
   03D1 F1            [10]  622 	pop	af
   03D2 33            [ 6]  623 	inc	sp
   03D3 4D            [ 4]  624 	ld	c, l
   03D4 D1            [10]  625 	pop	de
                            626 ;src/entities/enemy.c:102: enemy->y = (u8)nexty;
   03D5 DD 6E F9      [19]  627 	ld	l,-7 (ix)
   03D8 DD 66 FA      [19]  628 	ld	h,-6 (ix)
   03DB 71            [ 7]  629 	ld	(hl), c
                            630 ;src/entities/enemy.c:103: if (collision_is_on_ground_at((i16)enemy->x, (i16)enemy->y, enemy->h) && enemy->vy > 0) {
   03DC E1            [10]  631 	pop	hl
   03DD E5            [11]  632 	push	hl
   03DE 7E            [ 7]  633 	ld	a, (hl)
   03DF 06 00         [ 7]  634 	ld	b, #0x00
   03E1 DD 6E FE      [19]  635 	ld	l,-2 (ix)
   03E4 DD 66 FF      [19]  636 	ld	h,-1 (ix)
   03E7 6E            [ 7]  637 	ld	l, (hl)
   03E8 DD 75 F6      [19]  638 	ld	-10 (ix), l
   03EB DD 36 F7 00   [19]  639 	ld	-9 (ix), #0x00
   03EF D5            [11]  640 	push	de
   03F0 F5            [11]  641 	push	af
   03F1 33            [ 6]  642 	inc	sp
   03F2 C5            [11]  643 	push	bc
   03F3 DD 6E F6      [19]  644 	ld	l,-10 (ix)
   03F6 DD 66 F7      [19]  645 	ld	h,-9 (ix)
   03F9 E5            [11]  646 	push	hl
   03FA CDr00r00      [17]  647 	call	_collision_is_on_ground_at
   03FD F1            [10]  648 	pop	af
   03FE F1            [10]  649 	pop	af
   03FF 33            [ 6]  650 	inc	sp
   0400 D1            [10]  651 	pop	de
   0401 7D            [ 4]  652 	ld	a, l
   0402 B7            [ 4]  653 	or	a, a
   0403 28 0E         [12]  654 	jr	Z,00121$
   0405 1A            [ 7]  655 	ld	a, (de)
   0406 4F            [ 4]  656 	ld	c, a
   0407 AF            [ 4]  657 	xor	a, a
   0408 91            [ 4]  658 	sub	a, c
   0409 E2r0Er04      [10]  659 	jp	PO, 00165$
   040C EE 80         [ 7]  660 	xor	a, #0x80
   040E                     661 00165$:
   040E F2r13r04      [10]  662 	jp	P, 00121$
                            663 ;src/entities/enemy.c:104: enemy->vy = 0;
   0411 AF            [ 4]  664 	xor	a, a
   0412 12            [ 7]  665 	ld	(de), a
   0413                     666 00121$:
   0413 DD F9         [10]  667 	ld	sp, ix
   0415 DD E1         [14]  668 	pop	ix
   0417 C9            [10]  669 	ret
                            670 ;src/entities/enemy.c:108: void enemyrender(const Enemy* enemy) {
                            671 ;	---------------------------------
                            672 ; Function enemyrender
                            673 ; ---------------------------------
   0418                     674 _enemyrender::
   0418 DD E5         [15]  675 	push	ix
   041A DD 21 00 00   [14]  676 	ld	ix,#0
   041E DD 39         [15]  677 	add	ix,sp
   0420 3B            [ 6]  678 	dec	sp
                            679 ;src/entities/enemy.c:112: if (!enemy || !enemy->active) {
   0421 DD 7E 05      [19]  680 	ld	a, 5 (ix)
   0424 DD B6 04      [19]  681 	or	a,4 (ix)
   0427 28 65         [12]  682 	jr	Z,00113$
   0429 DD 4E 04      [19]  683 	ld	c,4 (ix)
   042C DD 46 05      [19]  684 	ld	b,5 (ix)
   042F C5            [11]  685 	push	bc
   0430 FD E1         [14]  686 	pop	iy
   0432 FD 7E 06      [19]  687 	ld	a, 6 (iy)
   0435 B7            [ 4]  688 	or	a, a
                            689 ;src/entities/enemy.c:113: return;
   0436 28 56         [12]  690 	jr	Z,00113$
                            691 ;src/entities/enemy.c:116: if (enemy->kind == 3) colour = 0x4C;
   0438 C5            [11]  692 	push	bc
   0439 FD E1         [14]  693 	pop	iy
   043B FD 7E 09      [19]  694 	ld	a, 9 (iy)
   043E FE 03         [ 7]  695 	cp	a, #0x03
   0440 20 04         [12]  696 	jr	NZ,00111$
   0442 1E 4C         [ 7]  697 	ld	e, #0x4c
   0444 18 11         [12]  698 	jr	00112$
   0446                     699 00111$:
                            700 ;src/entities/enemy.c:117: else if (enemy->kind == 2) colour = 0x5A;
   0446 FE 02         [ 7]  701 	cp	a, #0x02
   0448 20 04         [12]  702 	jr	NZ,00108$
   044A 1E 5A         [ 7]  703 	ld	e, #0x5a
   044C 18 09         [12]  704 	jr	00112$
   044E                     705 00108$:
                            706 ;src/entities/enemy.c:118: else if (enemy->kind == 1) colour = 0x4E;
   044E 3D            [ 4]  707 	dec	a
   044F 20 04         [12]  708 	jr	NZ,00105$
   0451 1E 4E         [ 7]  709 	ld	e, #0x4e
   0453 18 02         [12]  710 	jr	00112$
   0455                     711 00105$:
                            712 ;src/entities/enemy.c:119: else colour = 0x5C;
   0455 1E 5C         [ 7]  713 	ld	e, #0x5c
   0457                     714 00112$:
                            715 ;src/entities/enemy.c:121: pvmem = cpct_getScreenPtr(CPCT_VMEM_START, enemy->x, enemy->y);
   0457 69            [ 4]  716 	ld	l, c
   0458 60            [ 4]  717 	ld	h, b
   0459 23            [ 6]  718 	inc	hl
   045A 56            [ 7]  719 	ld	d, (hl)
   045B 0A            [ 7]  720 	ld	a, (bc)
   045C C5            [11]  721 	push	bc
   045D D5            [11]  722 	push	de
   045E 5F            [ 4]  723 	ld	e, a
   045F D5            [11]  724 	push	de
   0460 21 00 C0      [10]  725 	ld	hl, #0xc000
   0463 E5            [11]  726 	push	hl
   0464 CDr00r00      [17]  727 	call	_cpct_getScreenPtr
   0467 D1            [10]  728 	pop	de
   0468 C1            [10]  729 	pop	bc
   0469 E5            [11]  730 	push	hl
   046A FD E1         [14]  731 	pop	iy
                            732 ;src/entities/enemy.c:122: cpct_drawSolidBox(pvmem, colour, enemy->w, enemy->h);
   046C 69            [ 4]  733 	ld	l, c
   046D 60            [ 4]  734 	ld	h, b
   046E 23            [ 6]  735 	inc	hl
   046F 23            [ 6]  736 	inc	hl
   0470 23            [ 6]  737 	inc	hl
   0471 23            [ 6]  738 	inc	hl
   0472 23            [ 6]  739 	inc	hl
   0473 7E            [ 7]  740 	ld	a, (hl)
   0474 DD 77 FF      [19]  741 	ld	-1 (ix), a
   0477 69            [ 4]  742 	ld	l, c
   0478 60            [ 4]  743 	ld	h, b
   0479 01 04 00      [10]  744 	ld	bc, #0x0004
   047C 09            [11]  745 	add	hl, bc
   047D 56            [ 7]  746 	ld	d, (hl)
   047E FD E5         [15]  747 	push	iy
   0480 C1            [10]  748 	pop	bc
   0481 DD 7E FF      [19]  749 	ld	a, -1 (ix)
   0484 F5            [11]  750 	push	af
   0485 33            [ 6]  751 	inc	sp
   0486 D5            [11]  752 	push	de
   0487 C5            [11]  753 	push	bc
   0488 CDr00r00      [17]  754 	call	_cpct_drawSolidBox
   048B F1            [10]  755 	pop	af
   048C F1            [10]  756 	pop	af
   048D 33            [ 6]  757 	inc	sp
   048E                     758 00113$:
   048E 33            [ 6]  759 	inc	sp
   048F DD E1         [14]  760 	pop	ix
   0491 C9            [10]  761 	ret
                            762 ;src/entities/enemy.c:125: u8 enemydamage(Enemy* enemy, u8 damage) {
                            763 ;	---------------------------------
                            764 ; Function enemydamage
                            765 ; ---------------------------------
   0492                     766 _enemydamage::
   0492 DD E5         [15]  767 	push	ix
   0494 DD 21 00 00   [14]  768 	ld	ix,#0
   0498 DD 39         [15]  769 	add	ix,sp
                            770 ;src/entities/enemy.c:126: if (!enemy || !enemy->active) {
   049A DD 7E 05      [19]  771 	ld	a, 5 (ix)
   049D DD B6 04      [19]  772 	or	a,4 (ix)
   04A0 28 0F         [12]  773 	jr	Z,00101$
   04A2 DD 4E 04      [19]  774 	ld	c,4 (ix)
   04A5 DD 46 05      [19]  775 	ld	b,5 (ix)
   04A8 21 06 00      [10]  776 	ld	hl, #0x0006
   04AB 09            [11]  777 	add	hl,bc
   04AC EB            [ 4]  778 	ex	de,hl
   04AD 1A            [ 7]  779 	ld	a, (de)
   04AE B7            [ 4]  780 	or	a, a
   04AF 20 04         [12]  781 	jr	NZ,00102$
   04B1                     782 00101$:
                            783 ;src/entities/enemy.c:127: return 0;
   04B1 2E 00         [ 7]  784 	ld	l, #0x00
   04B3 18 1A         [12]  785 	jr	00106$
   04B5                     786 00102$:
                            787 ;src/entities/enemy.c:130: if (damage >= enemy->health) {
   04B5 21 07 00      [10]  788 	ld	hl, #0x0007
   04B8 09            [11]  789 	add	hl, bc
   04B9 4E            [ 7]  790 	ld	c, (hl)
   04BA DD 7E 06      [19]  791 	ld	a, 6 (ix)
   04BD 91            [ 4]  792 	sub	a, c
   04BE 38 08         [12]  793 	jr	C,00105$
                            794 ;src/entities/enemy.c:131: enemy->health = 0;
   04C0 36 00         [10]  795 	ld	(hl), #0x00
                            796 ;src/entities/enemy.c:132: enemy->active = 0;
   04C2 AF            [ 4]  797 	xor	a, a
   04C3 12            [ 7]  798 	ld	(de), a
                            799 ;src/entities/enemy.c:133: return 1;
   04C4 2E 01         [ 7]  800 	ld	l, #0x01
   04C6 18 07         [12]  801 	jr	00106$
   04C8                     802 00105$:
                            803 ;src/entities/enemy.c:136: enemy->health = (u8)(enemy->health - damage);
   04C8 79            [ 4]  804 	ld	a, c
   04C9 DD 96 06      [19]  805 	sub	a, 6 (ix)
   04CC 77            [ 7]  806 	ld	(hl), a
                            807 ;src/entities/enemy.c:137: return 0;
   04CD 2E 00         [ 7]  808 	ld	l, #0x00
   04CF                     809 00106$:
   04CF DD E1         [14]  810 	pop	ix
   04D1 C9            [10]  811 	ret
                            812 	.area _CODE
                            813 	.area _INITIALIZER
                            814 	.area _CABS (ABS)
