                              1 ;--------------------------------------------------------
                              2 ; File Created by SDCC : free open source ANSI-C Compiler
                              3 ; Version 3.6.8 #9946 (Mac OS X ppc)
                              4 ;--------------------------------------------------------
                              5 	.module projectile
                              6 	.optsdcc -mz80
                              7 	
                              8 ;--------------------------------------------------------
                              9 ; Public variables in this module
                             10 ;--------------------------------------------------------
                             11 	.globl _cpct_getScreenPtr
                             12 	.globl _cpct_drawSprite
                             13 	.globl _projectileinit
                             14 	.globl _projectilefire
                             15 	.globl _projectileupdate
                             16 	.globl _projectilerender
                             17 ;--------------------------------------------------------
                             18 ; special function registers
                             19 ;--------------------------------------------------------
                             20 ;--------------------------------------------------------
                             21 ; ram data
                             22 ;--------------------------------------------------------
                             23 	.area _DATA
                             24 ;--------------------------------------------------------
                             25 ; ram data
                             26 ;--------------------------------------------------------
                             27 	.area _INITIALIZED
                             28 ;--------------------------------------------------------
                             29 ; absolute external ram data
                             30 ;--------------------------------------------------------
                             31 	.area _DABS (ABS)
                             32 ;--------------------------------------------------------
                             33 ; global & static initialisations
                             34 ;--------------------------------------------------------
                             35 	.area _HOME
                             36 	.area _GSINIT
                             37 	.area _GSFINAL
                             38 	.area _GSINIT
                             39 ;--------------------------------------------------------
                             40 ; Home
                             41 ;--------------------------------------------------------
                             42 	.area _HOME
                             43 	.area _HOME
                             44 ;--------------------------------------------------------
                             45 ; code
                             46 ;--------------------------------------------------------
                             47 	.area _CODE
                             48 ;src/entities/projectile.c:22: void projectileinit(Projectile* projectile) {
                             49 ;	---------------------------------
                             50 ; Function projectileinit
                             51 ; ---------------------------------
   0000                      52 _projectileinit::
                             53 ;src/entities/projectile.c:23: if (!projectile) {
   0000 21 03 00      [10]   54 	ld	hl, #2+1
   0003 39            [11]   55 	add	hl, sp
   0004 7E            [ 7]   56 	ld	a, (hl)
   0005 2B            [ 6]   57 	dec	hl
   0006 B6            [ 7]   58 	or	a,(hl)
                             59 ;src/entities/projectile.c:24: return;
   0007 C8            [11]   60 	ret	Z
                             61 ;src/entities/projectile.c:27: projectile->x = 0;
   0008 D1            [10]   62 	pop	de
   0009 C1            [10]   63 	pop	bc
   000A C5            [11]   64 	push	bc
   000B D5            [11]   65 	push	de
   000C AF            [ 4]   66 	xor	a, a
   000D 02            [ 7]   67 	ld	(bc), a
                             68 ;src/entities/projectile.c:28: projectile->y = 0;
   000E 59            [ 4]   69 	ld	e, c
   000F 50            [ 4]   70 	ld	d, b
   0010 13            [ 6]   71 	inc	de
   0011 AF            [ 4]   72 	xor	a, a
   0012 12            [ 7]   73 	ld	(de), a
                             74 ;src/entities/projectile.c:29: projectile->vx = 0;
   0013 59            [ 4]   75 	ld	e, c
   0014 50            [ 4]   76 	ld	d, b
   0015 13            [ 6]   77 	inc	de
   0016 13            [ 6]   78 	inc	de
   0017 AF            [ 4]   79 	xor	a, a
   0018 12            [ 7]   80 	ld	(de), a
                             81 ;src/entities/projectile.c:30: projectile->vy = 0;
   0019 59            [ 4]   82 	ld	e, c
   001A 50            [ 4]   83 	ld	d, b
   001B 13            [ 6]   84 	inc	de
   001C 13            [ 6]   85 	inc	de
   001D 13            [ 6]   86 	inc	de
   001E AF            [ 4]   87 	xor	a, a
   001F 12            [ 7]   88 	ld	(de), a
                             89 ;src/entities/projectile.c:31: projectile->w = 2;
   0020 21 04 00      [10]   90 	ld	hl, #0x0004
   0023 09            [11]   91 	add	hl, bc
   0024 36 02         [10]   92 	ld	(hl), #0x02
                             93 ;src/entities/projectile.c:32: projectile->h = 2;
   0026 21 05 00      [10]   94 	ld	hl, #0x0005
   0029 09            [11]   95 	add	hl, bc
   002A 36 02         [10]   96 	ld	(hl), #0x02
                             97 ;src/entities/projectile.c:33: projectile->active = 0;
   002C 21 06 00      [10]   98 	ld	hl, #0x0006
   002F 09            [11]   99 	add	hl, bc
   0030 36 00         [10]  100 	ld	(hl), #0x00
                            101 ;src/entities/projectile.c:34: projectile->damage = 1;
   0032 21 07 00      [10]  102 	ld	hl, #0x0007
   0035 09            [11]  103 	add	hl, bc
   0036 36 01         [10]  104 	ld	(hl), #0x01
                            105 ;src/entities/projectile.c:35: projectile->lifetime = 0;
   0038 21 08 00      [10]  106 	ld	hl, #0x0008
   003B 09            [11]  107 	add	hl, bc
   003C 36 00         [10]  108 	ld	(hl), #0x00
                            109 ;src/entities/projectile.c:36: projectile->weapon = 0;
   003E 21 09 00      [10]  110 	ld	hl, #0x0009
   0041 09            [11]  111 	add	hl, bc
   0042 36 00         [10]  112 	ld	(hl), #0x00
   0044 C9            [10]  113 	ret
   0045                     114 _projectile_basic_sprite:
   0045 FF                  115 	.db #0xff	; 255
   0046 FF                  116 	.db #0xff	; 255
   0047 FF                  117 	.db #0xff	; 255
   0048 FF                  118 	.db #0xff	; 255
   0049 FF                  119 	.db #0xff	; 255
   004A FF                  120 	.db #0xff	; 255
   004B FF                  121 	.db #0xff	; 255
   004C FF                  122 	.db #0xff	; 255
   004D FF                  123 	.db #0xff	; 255
   004E FF                  124 	.db #0xff	; 255
   004F FF                  125 	.db #0xff	; 255
   0050 FF                  126 	.db #0xff	; 255
   0051 FF                  127 	.db #0xff	; 255
   0052 FF                  128 	.db #0xff	; 255
   0053 FF                  129 	.db #0xff	; 255
   0054 FF                  130 	.db #0xff	; 255
   0055                     131 _projectile_up_sprite:
   0055 CF                  132 	.db #0xcf	; 207
   0056 CF                  133 	.db #0xcf	; 207
   0057 CF                  134 	.db #0xcf	; 207
   0058 CF                  135 	.db #0xcf	; 207
   0059 CF                  136 	.db #0xcf	; 207
   005A CF                  137 	.db #0xcf	; 207
   005B                     138 _projectile_special_sprite:
   005B F0                  139 	.db #0xf0	; 240
   005C F0                  140 	.db #0xf0	; 240
   005D F0                  141 	.db #0xf0	; 240
   005E F0                  142 	.db #0xf0	; 240
   005F F0                  143 	.db #0xf0	; 240
   0060 F0                  144 	.db #0xf0	; 240
   0061 F0                  145 	.db #0xf0	; 240
   0062 F0                  146 	.db #0xf0	; 240
   0063 F0                  147 	.db #0xf0	; 240
   0064 F0                  148 	.db #0xf0	; 240
   0065 F0                  149 	.db #0xf0	; 240
   0066 F0                  150 	.db #0xf0	; 240
                            151 ;src/entities/projectile.c:39: void projectilefire(Projectile* projectile, u8 x, u8 y, i8 dir, u8 weapon) {
                            152 ;	---------------------------------
                            153 ; Function projectilefire
                            154 ; ---------------------------------
   0067                     155 _projectilefire::
   0067 DD E5         [15]  156 	push	ix
   0069 DD 21 00 00   [14]  157 	ld	ix,#0
   006D DD 39         [15]  158 	add	ix,sp
   006F F5            [11]  159 	push	af
   0070 F5            [11]  160 	push	af
                            161 ;src/entities/projectile.c:40: if (!projectile) {
   0071 DD 7E 05      [19]  162 	ld	a, 5 (ix)
   0074 DD B6 04      [19]  163 	or	a,4 (ix)
                            164 ;src/entities/projectile.c:41: return;
   0077 CAr19r01      [10]  165 	jp	Z,00109$
                            166 ;src/entities/projectile.c:44: projectile->x = x;
   007A DD 4E 04      [19]  167 	ld	c,4 (ix)
   007D DD 46 05      [19]  168 	ld	b,5 (ix)
   0080 DD 7E 06      [19]  169 	ld	a, 6 (ix)
   0083 02            [ 7]  170 	ld	(bc), a
                            171 ;src/entities/projectile.c:45: projectile->y = y;
   0084 59            [ 4]  172 	ld	e, c
   0085 50            [ 4]  173 	ld	d, b
   0086 13            [ 6]  174 	inc	de
   0087 DD 7E 07      [19]  175 	ld	a, 7 (ix)
   008A 12            [ 7]  176 	ld	(de), a
                            177 ;src/entities/projectile.c:46: projectile->vx = dir;
   008B 21 02 00      [10]  178 	ld	hl, #0x0002
   008E 09            [11]  179 	add	hl,bc
   008F DD 75 FE      [19]  180 	ld	-2 (ix), l
   0092 DD 74 FF      [19]  181 	ld	-1 (ix), h
   0095 DD 7E 08      [19]  182 	ld	a, 8 (ix)
   0098 77            [ 7]  183 	ld	(hl), a
                            184 ;src/entities/projectile.c:47: projectile->vy = 0;
   0099 59            [ 4]  185 	ld	e, c
   009A 50            [ 4]  186 	ld	d, b
   009B 13            [ 6]  187 	inc	de
   009C 13            [ 6]  188 	inc	de
   009D 13            [ 6]  189 	inc	de
   009E AF            [ 4]  190 	xor	a, a
   009F 12            [ 7]  191 	ld	(de), a
                            192 ;src/entities/projectile.c:48: projectile->weapon = weapon;
   00A0 21 09 00      [10]  193 	ld	hl, #0x0009
   00A3 09            [11]  194 	add	hl, bc
   00A4 DD 7E 09      [19]  195 	ld	a, 9 (ix)
   00A7 77            [ 7]  196 	ld	(hl), a
                            197 ;src/entities/projectile.c:49: projectile->active = 1;
   00A8 21 06 00      [10]  198 	ld	hl, #0x0006
   00AB 09            [11]  199 	add	hl, bc
   00AC 36 01         [10]  200 	ld	(hl), #0x01
                            201 ;src/entities/projectile.c:52: projectile->w = 4;
   00AE 21 04 00      [10]  202 	ld	hl, #0x0004
   00B1 09            [11]  203 	add	hl, bc
                            204 ;src/entities/projectile.c:53: projectile->h = 4;
   00B2 79            [ 4]  205 	ld	a, c
   00B3 C6 05         [ 7]  206 	add	a, #0x05
   00B5 5F            [ 4]  207 	ld	e, a
   00B6 78            [ 4]  208 	ld	a, b
   00B7 CE 00         [ 7]  209 	adc	a, #0x00
   00B9 57            [ 4]  210 	ld	d, a
                            211 ;src/entities/projectile.c:54: projectile->damage = 1;
   00BA 79            [ 4]  212 	ld	a, c
   00BB C6 07         [ 7]  213 	add	a, #0x07
   00BD DD 77 FC      [19]  214 	ld	-4 (ix), a
   00C0 78            [ 4]  215 	ld	a, b
   00C1 CE 00         [ 7]  216 	adc	a, #0x00
   00C3 DD 77 FD      [19]  217 	ld	-3 (ix), a
                            218 ;src/entities/projectile.c:55: projectile->lifetime = 45;
   00C6 79            [ 4]  219 	ld	a, c
   00C7 C6 08         [ 7]  220 	add	a, #0x08
   00C9 4F            [ 4]  221 	ld	c, a
   00CA 78            [ 4]  222 	ld	a, b
   00CB CE 00         [ 7]  223 	adc	a, #0x00
   00CD 47            [ 4]  224 	ld	b, a
                            225 ;src/entities/projectile.c:51: if (weapon == 0) {
   00CE DD 7E 09      [19]  226 	ld	a, 9 (ix)
   00D1 B7            [ 4]  227 	or	a, a
   00D2 20 0E         [12]  228 	jr	NZ,00107$
                            229 ;src/entities/projectile.c:52: projectile->w = 4;
   00D4 36 04         [10]  230 	ld	(hl), #0x04
                            231 ;src/entities/projectile.c:53: projectile->h = 4;
   00D6 3E 04         [ 7]  232 	ld	a, #0x04
   00D8 12            [ 7]  233 	ld	(de), a
                            234 ;src/entities/projectile.c:54: projectile->damage = 1;
   00D9 E1            [10]  235 	pop	hl
   00DA E5            [11]  236 	push	hl
   00DB 36 01         [10]  237 	ld	(hl), #0x01
                            238 ;src/entities/projectile.c:55: projectile->lifetime = 45;
   00DD 3E 2D         [ 7]  239 	ld	a, #0x2d
   00DF 02            [ 7]  240 	ld	(bc), a
   00E0 18 37         [12]  241 	jr	00109$
   00E2                     242 00107$:
                            243 ;src/entities/projectile.c:56: } else if (weapon == 1) {
   00E2 DD 7E 09      [19]  244 	ld	a, 9 (ix)
   00E5 3D            [ 4]  245 	dec	a
   00E6 20 0E         [12]  246 	jr	NZ,00104$
                            247 ;src/entities/projectile.c:57: projectile->w = 2;
   00E8 36 02         [10]  248 	ld	(hl), #0x02
                            249 ;src/entities/projectile.c:58: projectile->h = 3;
   00EA 3E 03         [ 7]  250 	ld	a, #0x03
   00EC 12            [ 7]  251 	ld	(de), a
                            252 ;src/entities/projectile.c:59: projectile->damage = 2;
   00ED E1            [10]  253 	pop	hl
   00EE E5            [11]  254 	push	hl
   00EF 36 02         [10]  255 	ld	(hl), #0x02
                            256 ;src/entities/projectile.c:60: projectile->lifetime = 28;
   00F1 3E 1C         [ 7]  257 	ld	a, #0x1c
   00F3 02            [ 7]  258 	ld	(bc), a
   00F4 18 23         [12]  259 	jr	00109$
   00F6                     260 00104$:
                            261 ;src/entities/projectile.c:62: projectile->w = 4;
   00F6 36 04         [10]  262 	ld	(hl), #0x04
                            263 ;src/entities/projectile.c:63: projectile->h = 3;
   00F8 3E 03         [ 7]  264 	ld	a, #0x03
   00FA 12            [ 7]  265 	ld	(de), a
                            266 ;src/entities/projectile.c:64: projectile->damage = 3;
   00FB E1            [10]  267 	pop	hl
   00FC E5            [11]  268 	push	hl
   00FD 36 03         [10]  269 	ld	(hl), #0x03
                            270 ;src/entities/projectile.c:65: projectile->lifetime = 56;
   00FF 3E 38         [ 7]  271 	ld	a, #0x38
   0101 02            [ 7]  272 	ld	(bc), a
                            273 ;src/entities/projectile.c:66: projectile->vx = (i8)(dir > 0 ? 4 : -4);
   0102 D1            [10]  274 	pop	de
   0103 C1            [10]  275 	pop	bc
   0104 C5            [11]  276 	push	bc
   0105 D5            [11]  277 	push	de
   0106 AF            [ 4]  278 	xor	a, a
   0107 DD 96 08      [19]  279 	sub	a, 8 (ix)
   010A E2r0Fr01      [10]  280 	jp	PO, 00131$
   010D EE 80         [ 7]  281 	xor	a, #0x80
   010F                     282 00131$:
   010F F2r16r01      [10]  283 	jp	P, 00111$
   0112 3E 04         [ 7]  284 	ld	a, #0x04
   0114 18 02         [12]  285 	jr	00112$
   0116                     286 00111$:
   0116 3E FC         [ 7]  287 	ld	a, #0xfc
   0118                     288 00112$:
   0118 02            [ 7]  289 	ld	(bc), a
   0119                     290 00109$:
   0119 DD F9         [10]  291 	ld	sp, ix
   011B DD E1         [14]  292 	pop	ix
   011D C9            [10]  293 	ret
                            294 ;src/entities/projectile.c:70: void projectileupdate(Projectile* projectile) {
                            295 ;	---------------------------------
                            296 ; Function projectileupdate
                            297 ; ---------------------------------
   011E                     298 _projectileupdate::
   011E DD E5         [15]  299 	push	ix
   0120 DD 21 00 00   [14]  300 	ld	ix,#0
   0124 DD 39         [15]  301 	add	ix,sp
   0126 3B            [ 6]  302 	dec	sp
                            303 ;src/entities/projectile.c:71: if (!projectile || !projectile->active) {
   0127 DD 7E 05      [19]  304 	ld	a, 5 (ix)
   012A DD B6 04      [19]  305 	or	a,4 (ix)
   012D 28 4A         [12]  306 	jr	Z,00109$
   012F DD 5E 04      [19]  307 	ld	e,4 (ix)
   0132 DD 56 05      [19]  308 	ld	d,5 (ix)
   0135 FD 21 06 00   [14]  309 	ld	iy, #0x0006
   0139 FD 19         [15]  310 	add	iy, de
   013B FD 7E 00      [19]  311 	ld	a, 0 (iy)
   013E B7            [ 4]  312 	or	a, a
                            313 ;src/entities/projectile.c:72: return;
   013F 28 38         [12]  314 	jr	Z,00109$
                            315 ;src/entities/projectile.c:75: projectile->x = (u8)(projectile->x + projectile->vx);
   0141 1A            [ 7]  316 	ld	a, (de)
   0142 4F            [ 4]  317 	ld	c, a
   0143 6B            [ 4]  318 	ld	l, e
   0144 62            [ 4]  319 	ld	h, d
   0145 23            [ 6]  320 	inc	hl
   0146 23            [ 6]  321 	inc	hl
   0147 6E            [ 7]  322 	ld	l, (hl)
   0148 09            [11]  323 	add	hl, bc
   0149 7D            [ 4]  324 	ld	a, l
   014A 12            [ 7]  325 	ld	(de), a
                            326 ;src/entities/projectile.c:76: projectile->y = (u8)(projectile->y + projectile->vy);
   014B 4B            [ 4]  327 	ld	c, e
   014C 42            [ 4]  328 	ld	b, d
   014D 03            [ 6]  329 	inc	bc
   014E 0A            [ 7]  330 	ld	a, (bc)
   014F DD 77 FF      [19]  331 	ld	-1 (ix), a
   0152 6B            [ 4]  332 	ld	l, e
   0153 62            [ 4]  333 	ld	h, d
   0154 23            [ 6]  334 	inc	hl
   0155 23            [ 6]  335 	inc	hl
   0156 23            [ 6]  336 	inc	hl
   0157 6E            [ 7]  337 	ld	l, (hl)
   0158 DD 7E FF      [19]  338 	ld	a, -1 (ix)
   015B 85            [ 4]  339 	add	a, l
   015C 02            [ 7]  340 	ld	(bc), a
                            341 ;src/entities/projectile.c:78: if (projectile->lifetime) {
   015D 21 08 00      [10]  342 	ld	hl, #0x0008
   0160 19            [11]  343 	add	hl,de
   0161 4D            [ 4]  344 	ld	c, l
   0162 44            [ 4]  345 	ld	b, h
   0163 0A            [ 7]  346 	ld	a, (bc)
   0164 B7            [ 4]  347 	or	a, a
   0165 28 03         [12]  348 	jr	Z,00105$
                            349 ;src/entities/projectile.c:79: projectile->lifetime--;
   0167 C6 FF         [ 7]  350 	add	a, #0xff
   0169 02            [ 7]  351 	ld	(bc), a
   016A                     352 00105$:
                            353 ;src/entities/projectile.c:82: if (projectile->x > 78 || projectile->lifetime == 0) {
   016A 1A            [ 7]  354 	ld	a, (de)
   016B 5F            [ 4]  355 	ld	e, a
   016C 3E 4E         [ 7]  356 	ld	a, #0x4e
   016E 93            [ 4]  357 	sub	a, e
   016F 38 04         [12]  358 	jr	C,00106$
   0171 0A            [ 7]  359 	ld	a, (bc)
   0172 B7            [ 4]  360 	or	a, a
   0173 20 04         [12]  361 	jr	NZ,00109$
   0175                     362 00106$:
                            363 ;src/entities/projectile.c:83: projectile->active = 0;
   0175 FD 36 00 00   [19]  364 	ld	0 (iy), #0x00
   0179                     365 00109$:
   0179 33            [ 6]  366 	inc	sp
   017A DD E1         [14]  367 	pop	ix
   017C C9            [10]  368 	ret
                            369 ;src/entities/projectile.c:87: void projectilerender(const Projectile* projectile) {
                            370 ;	---------------------------------
                            371 ; Function projectilerender
                            372 ; ---------------------------------
   017D                     373 _projectilerender::
   017D DD E5         [15]  374 	push	ix
   017F DD 21 00 00   [14]  375 	ld	ix,#0
   0183 DD 39         [15]  376 	add	ix,sp
   0185 F5            [11]  377 	push	af
   0186 3B            [ 6]  378 	dec	sp
                            379 ;src/entities/projectile.c:91: if (!projectile || !projectile->active) {
   0187 DD 7E 05      [19]  380 	ld	a, 5 (ix)
   018A DD B6 04      [19]  381 	or	a,4 (ix)
   018D 28 6B         [12]  382 	jr	Z,00110$
   018F DD 4E 04      [19]  383 	ld	c,4 (ix)
   0192 DD 46 05      [19]  384 	ld	b,5 (ix)
   0195 C5            [11]  385 	push	bc
   0196 FD E1         [14]  386 	pop	iy
   0198 FD 7E 06      [19]  387 	ld	a, 6 (iy)
   019B B7            [ 4]  388 	or	a, a
                            389 ;src/entities/projectile.c:92: return;
   019C 28 5C         [12]  390 	jr	Z,00110$
                            391 ;src/entities/projectile.c:95: if (projectile->weapon == 0) sprite = projectile_basic_sprite;
   019E C5            [11]  392 	push	bc
   019F FD E1         [14]  393 	pop	iy
   01A1 FD 7E 09      [19]  394 	ld	a, 9 (iy)
   01A4 B7            [ 4]  395 	or	a, a
   01A5 20 0A         [12]  396 	jr	NZ,00108$
   01A7 DD 36 FEr45   [19]  397 	ld	-2 (ix), #<(_projectile_basic_sprite)
   01AB DD 36 FFs00   [19]  398 	ld	-1 (ix), #>(_projectile_basic_sprite)
   01AF 18 15         [12]  399 	jr	00109$
   01B1                     400 00108$:
                            401 ;src/entities/projectile.c:96: else if (projectile->weapon == 1) sprite = projectile_up_sprite;
   01B1 3D            [ 4]  402 	dec	a
   01B2 20 0A         [12]  403 	jr	NZ,00105$
   01B4 DD 36 FEr55   [19]  404 	ld	-2 (ix), #<(_projectile_up_sprite)
   01B8 DD 36 FFs00   [19]  405 	ld	-1 (ix), #>(_projectile_up_sprite)
   01BC 18 08         [12]  406 	jr	00109$
   01BE                     407 00105$:
                            408 ;src/entities/projectile.c:97: else sprite = projectile_special_sprite;
   01BE DD 36 FEr5B   [19]  409 	ld	-2 (ix), #<(_projectile_special_sprite)
   01C2 DD 36 FFs00   [19]  410 	ld	-1 (ix), #>(_projectile_special_sprite)
   01C6                     411 00109$:
                            412 ;src/entities/projectile.c:99: pvmem = cpct_getScreenPtr(CPCT_VMEM_START, projectile->x, projectile->y);
   01C6 69            [ 4]  413 	ld	l, c
   01C7 60            [ 4]  414 	ld	h, b
   01C8 23            [ 6]  415 	inc	hl
   01C9 56            [ 7]  416 	ld	d, (hl)
   01CA 0A            [ 7]  417 	ld	a, (bc)
   01CB C5            [11]  418 	push	bc
   01CC 5F            [ 4]  419 	ld	e, a
   01CD D5            [11]  420 	push	de
   01CE 21 00 C0      [10]  421 	ld	hl, #0xc000
   01D1 E5            [11]  422 	push	hl
   01D2 CDr00r00      [17]  423 	call	_cpct_getScreenPtr
   01D5 EB            [ 4]  424 	ex	de,hl
   01D6 C1            [10]  425 	pop	bc
                            426 ;src/entities/projectile.c:100: cpct_drawSprite((u8*)sprite, pvmem, projectile->w, projectile->h);
   01D7 C5            [11]  427 	push	bc
   01D8 FD E1         [14]  428 	pop	iy
   01DA FD 7E 05      [19]  429 	ld	a, 5 (iy)
   01DD DD 77 FD      [19]  430 	ld	-3 (ix), a
   01E0 69            [ 4]  431 	ld	l, c
   01E1 60            [ 4]  432 	ld	h, b
   01E2 01 04 00      [10]  433 	ld	bc, #0x0004
   01E5 09            [11]  434 	add	hl, bc
   01E6 4E            [ 7]  435 	ld	c, (hl)
   01E7 D5            [11]  436 	push	de
   01E8 FD E1         [14]  437 	pop	iy
   01EA DD 5E FE      [19]  438 	ld	e,-2 (ix)
   01ED DD 56 FF      [19]  439 	ld	d,-1 (ix)
   01F0 DD 46 FD      [19]  440 	ld	b, -3 (ix)
   01F3 C5            [11]  441 	push	bc
   01F4 FD E5         [15]  442 	push	iy
   01F6 D5            [11]  443 	push	de
   01F7 CDr00r00      [17]  444 	call	_cpct_drawSprite
   01FA                     445 00110$:
   01FA DD F9         [10]  446 	ld	sp, ix
   01FC DD E1         [14]  447 	pop	ix
   01FE C9            [10]  448 	ret
                            449 	.area _CODE
                            450 	.area _INITIALIZER
                            451 	.area _CABS (ABS)
