                              1 ;--------------------------------------------------------
                              2 ; File Created by SDCC : free open source ANSI-C Compiler
                              3 ; Version 3.6.8 #9946 (Mac OS X ppc)
                              4 ;--------------------------------------------------------
                              5 	.module collision
                              6 	.optsdcc -mz80
                              7 	
                              8 ;--------------------------------------------------------
                              9 ; Public variables in this module
                             10 ;--------------------------------------------------------
                             11 	.globl _collision_check_player_tilemap
                             12 	.globl _collision_check_enemy_tilemap
                             13 	.globl _collision_check_projectile_tilemap
                             14 	.globl _collision_check_player_enemy
                             15 	.globl _collision_check_projectile_enemy
                             16 ;--------------------------------------------------------
                             17 ; special function registers
                             18 ;--------------------------------------------------------
                             19 ;--------------------------------------------------------
                             20 ; ram data
                             21 ;--------------------------------------------------------
                             22 	.area _DATA
                             23 ;--------------------------------------------------------
                             24 ; ram data
                             25 ;--------------------------------------------------------
                             26 	.area _INITIALIZED
                             27 ;--------------------------------------------------------
                             28 ; absolute external ram data
                             29 ;--------------------------------------------------------
                             30 	.area _DABS (ABS)
                             31 ;--------------------------------------------------------
                             32 ; global & static initialisations
                             33 ;--------------------------------------------------------
                             34 	.area _HOME
                             35 	.area _GSINIT
                             36 	.area _GSFINAL
                             37 	.area _GSINIT
                             38 ;--------------------------------------------------------
                             39 ; Home
                             40 ;--------------------------------------------------------
                             41 	.area _HOME
                             42 	.area _HOME
                             43 ;--------------------------------------------------------
                             44 ; code
                             45 ;--------------------------------------------------------
                             46 	.area _CODE
                             47 ;src/systems/collision.c:9: static u8 check_tile_collision(u8 x, u8 y, u8 width, u8 height) {
                             48 ;	---------------------------------
                             49 ; Function check_tile_collision
                             50 ; ---------------------------------
   0000                      51 _check_tile_collision:
   0000 DD E5         [15]   52 	push	ix
   0002 DD 21 00 00   [14]   53 	ld	ix,#0
   0006 DD 39         [15]   54 	add	ix,sp
   0008 F5            [11]   55 	push	af
   0009 F5            [11]   56 	push	af
                             57 ;src/systems/collision.c:10: u8 tile_x1 = x >> 3;
   000A DD 7E 04      [19]   58 	ld	a, 4 (ix)
   000D 0F            [ 4]   59 	rrca
   000E 0F            [ 4]   60 	rrca
   000F 0F            [ 4]   61 	rrca
   0010 E6 1F         [ 7]   62 	and	a, #0x1f
   0012 DD 77 FF      [19]   63 	ld	-1 (ix), a
                             64 ;src/systems/collision.c:11: u8 tile_y1 = y >> 3;
   0015 DD 7E 05      [19]   65 	ld	a, 5 (ix)
   0018 0F            [ 4]   66 	rrca
   0019 0F            [ 4]   67 	rrca
   001A 0F            [ 4]   68 	rrca
   001B E6 1F         [ 7]   69 	and	a, #0x1f
   001D DD 77 FC      [19]   70 	ld	-4 (ix), a
                             71 ;src/systems/collision.c:12: u8 tile_x2 = (x + width - 1) >> 3;
   0020 DD 4E 04      [19]   72 	ld	c, 4 (ix)
   0023 06 00         [ 7]   73 	ld	b, #0x00
   0025 DD 6E 06      [19]   74 	ld	l, 6 (ix)
   0028 26 00         [ 7]   75 	ld	h, #0x00
   002A 09            [11]   76 	add	hl, bc
   002B 2B            [ 6]   77 	dec	hl
   002C CB 2C         [ 8]   78 	sra	h
   002E CB 1D         [ 8]   79 	rr	l
   0030 CB 2C         [ 8]   80 	sra	h
   0032 CB 1D         [ 8]   81 	rr	l
   0034 CB 2C         [ 8]   82 	sra	h
   0036 CB 1D         [ 8]   83 	rr	l
   0038 DD 75 FE      [19]   84 	ld	-2 (ix), l
                             85 ;src/systems/collision.c:13: u8 tile_y2 = (y + height - 1) >> 3;
   003B DD 4E 05      [19]   86 	ld	c, 5 (ix)
   003E 06 00         [ 7]   87 	ld	b, #0x00
   0040 DD 6E 07      [19]   88 	ld	l, 7 (ix)
   0043 26 00         [ 7]   89 	ld	h, #0x00
   0045 09            [11]   90 	add	hl, bc
   0046 2B            [ 6]   91 	dec	hl
   0047 CB 2C         [ 8]   92 	sra	h
   0049 CB 1D         [ 8]   93 	rr	l
   004B CB 2C         [ 8]   94 	sra	h
   004D CB 1D         [ 8]   95 	rr	l
   004F CB 2C         [ 8]   96 	sra	h
   0051 CB 1D         [ 8]   97 	rr	l
   0053 DD 75 FD      [19]   98 	ld	-3 (ix), l
                             99 ;src/systems/collision.c:15: for (u8 ty = tile_y1; ty <= tile_y2; ty++) {
   0056                     100 00112$:
   0056 DD 7E FD      [19]  101 	ld	a, -3 (ix)
   0059 DD 96 FC      [19]  102 	sub	a, -4 (ix)
   005C 38 41         [12]  103 	jr	C,00107$
                            104 ;src/systems/collision.c:16: for (u8 tx = tile_x1; tx <= tile_x2; tx++) {
   005E DD 4E FF      [19]  105 	ld	c, -1 (ix)
   0061                     106 00109$:
   0061 DD 7E FE      [19]  107 	ld	a, -2 (ix)
   0064 91            [ 4]  108 	sub	a, c
   0065 38 33         [12]  109 	jr	C,00113$
                            110 ;src/systems/collision.c:17: if (ty < level1_tilemap_height && tx < level1_tilemap_width) {
   0067 21r00r00      [10]  111 	ld	hl,#_level1_tilemap_height + 0
   006A DD 7E FC      [19]  112 	ld	a,-4 (ix)
   006D 96            [ 7]  113 	sub	a,(hl)
   006E 30 27         [12]  114 	jr	NC,00110$
   0070 21r00r00      [10]  115 	ld	hl,#_level1_tilemap_width + 0
   0073 5E            [ 7]  116 	ld	e, (hl)
   0074 79            [ 4]  117 	ld	a, c
   0075 93            [ 4]  118 	sub	a, e
   0076 30 1F         [12]  119 	jr	NC,00110$
                            120 ;src/systems/collision.c:18: u8 tile = level1_collision_map[ty * level1_tilemap_width + tx];
   0078 DD 66 FC      [19]  121 	ld	h, -4 (ix)
   007B 2E 00         [ 7]  122 	ld	l, #0x00
   007D 55            [ 4]  123 	ld	d, l
   007E 06 08         [ 7]  124 	ld	b, #0x08
   0080                     125 00144$:
   0080 29            [11]  126 	add	hl, hl
   0081 30 01         [12]  127 	jr	NC,00145$
   0083 19            [11]  128 	add	hl, de
   0084                     129 00145$:
   0084 10 FA         [13]  130 	djnz	00144$
   0086 59            [ 4]  131 	ld	e, c
   0087 16 00         [ 7]  132 	ld	d, #0x00
   0089 19            [11]  133 	add	hl, de
   008A ED 5Br00r00   [20]  134 	ld	de, (_level1_collision_map)
   008E 19            [11]  135 	add	hl, de
   008F 7E            [ 7]  136 	ld	a, (hl)
                            137 ;src/systems/collision.c:19: if (tile) return 1;
   0090 B7            [ 4]  138 	or	a, a
   0091 28 04         [12]  139 	jr	Z,00110$
   0093 2E 01         [ 7]  140 	ld	l, #0x01
   0095 18 0A         [12]  141 	jr	00114$
   0097                     142 00110$:
                            143 ;src/systems/collision.c:16: for (u8 tx = tile_x1; tx <= tile_x2; tx++) {
   0097 0C            [ 4]  144 	inc	c
   0098 18 C7         [12]  145 	jr	00109$
   009A                     146 00113$:
                            147 ;src/systems/collision.c:15: for (u8 ty = tile_y1; ty <= tile_y2; ty++) {
   009A DD 34 FC      [23]  148 	inc	-4 (ix)
   009D 18 B7         [12]  149 	jr	00112$
   009F                     150 00107$:
                            151 ;src/systems/collision.c:23: return 0;
   009F 2E 00         [ 7]  152 	ld	l, #0x00
   00A1                     153 00114$:
   00A1 DD F9         [10]  154 	ld	sp, ix
   00A3 DD E1         [14]  155 	pop	ix
   00A5 C9            [10]  156 	ret
                            157 ;src/systems/collision.c:26: u8 collision_check_player_tilemap(u8 x, u8 y, u8 width, u8 height) {
                            158 ;	---------------------------------
                            159 ; Function collision_check_player_tilemap
                            160 ; ---------------------------------
   00A6                     161 _collision_check_player_tilemap::
                            162 ;src/systems/collision.c:27: return check_tile_collision(x, y, width, height);
   00A6 21 05 00      [10]  163 	ld	hl, #5+0
   00A9 39            [11]  164 	add	hl, sp
   00AA 7E            [ 7]  165 	ld	a, (hl)
   00AB F5            [11]  166 	push	af
   00AC 33            [ 6]  167 	inc	sp
   00AD 21 05 00      [10]  168 	ld	hl, #5+0
   00B0 39            [11]  169 	add	hl, sp
   00B1 7E            [ 7]  170 	ld	a, (hl)
   00B2 F5            [11]  171 	push	af
   00B3 33            [ 6]  172 	inc	sp
   00B4 21 05 00      [10]  173 	ld	hl, #5+0
   00B7 39            [11]  174 	add	hl, sp
   00B8 7E            [ 7]  175 	ld	a, (hl)
   00B9 F5            [11]  176 	push	af
   00BA 33            [ 6]  177 	inc	sp
   00BB 21 05 00      [10]  178 	ld	hl, #5+0
   00BE 39            [11]  179 	add	hl, sp
   00BF 7E            [ 7]  180 	ld	a, (hl)
   00C0 F5            [11]  181 	push	af
   00C1 33            [ 6]  182 	inc	sp
   00C2 CDr00r00      [17]  183 	call	_check_tile_collision
   00C5 F1            [10]  184 	pop	af
   00C6 F1            [10]  185 	pop	af
   00C7 C9            [10]  186 	ret
                            187 ;src/systems/collision.c:30: u8 collision_check_enemy_tilemap(u8 x, u8 y, u8 width, u8 height) {
                            188 ;	---------------------------------
                            189 ; Function collision_check_enemy_tilemap
                            190 ; ---------------------------------
   00C8                     191 _collision_check_enemy_tilemap::
                            192 ;src/systems/collision.c:31: return check_tile_collision(x, y, width, height);
   00C8 21 05 00      [10]  193 	ld	hl, #5+0
   00CB 39            [11]  194 	add	hl, sp
   00CC 7E            [ 7]  195 	ld	a, (hl)
   00CD F5            [11]  196 	push	af
   00CE 33            [ 6]  197 	inc	sp
   00CF 21 05 00      [10]  198 	ld	hl, #5+0
   00D2 39            [11]  199 	add	hl, sp
   00D3 7E            [ 7]  200 	ld	a, (hl)
   00D4 F5            [11]  201 	push	af
   00D5 33            [ 6]  202 	inc	sp
   00D6 21 05 00      [10]  203 	ld	hl, #5+0
   00D9 39            [11]  204 	add	hl, sp
   00DA 7E            [ 7]  205 	ld	a, (hl)
   00DB F5            [11]  206 	push	af
   00DC 33            [ 6]  207 	inc	sp
   00DD 21 05 00      [10]  208 	ld	hl, #5+0
   00E0 39            [11]  209 	add	hl, sp
   00E1 7E            [ 7]  210 	ld	a, (hl)
   00E2 F5            [11]  211 	push	af
   00E3 33            [ 6]  212 	inc	sp
   00E4 CDr00r00      [17]  213 	call	_check_tile_collision
   00E7 F1            [10]  214 	pop	af
   00E8 F1            [10]  215 	pop	af
   00E9 C9            [10]  216 	ret
                            217 ;src/systems/collision.c:34: u8 collision_check_projectile_tilemap(u8 x, u8 y, u8 width, u8 height) {
                            218 ;	---------------------------------
                            219 ; Function collision_check_projectile_tilemap
                            220 ; ---------------------------------
   00EA                     221 _collision_check_projectile_tilemap::
                            222 ;src/systems/collision.c:35: return check_tile_collision(x, y, width, height);
   00EA 21 05 00      [10]  223 	ld	hl, #5+0
   00ED 39            [11]  224 	add	hl, sp
   00EE 7E            [ 7]  225 	ld	a, (hl)
   00EF F5            [11]  226 	push	af
   00F0 33            [ 6]  227 	inc	sp
   00F1 21 05 00      [10]  228 	ld	hl, #5+0
   00F4 39            [11]  229 	add	hl, sp
   00F5 7E            [ 7]  230 	ld	a, (hl)
   00F6 F5            [11]  231 	push	af
   00F7 33            [ 6]  232 	inc	sp
   00F8 21 05 00      [10]  233 	ld	hl, #5+0
   00FB 39            [11]  234 	add	hl, sp
   00FC 7E            [ 7]  235 	ld	a, (hl)
   00FD F5            [11]  236 	push	af
   00FE 33            [ 6]  237 	inc	sp
   00FF 21 05 00      [10]  238 	ld	hl, #5+0
   0102 39            [11]  239 	add	hl, sp
   0103 7E            [ 7]  240 	ld	a, (hl)
   0104 F5            [11]  241 	push	af
   0105 33            [ 6]  242 	inc	sp
   0106 CDr00r00      [17]  243 	call	_check_tile_collision
   0109 F1            [10]  244 	pop	af
   010A F1            [10]  245 	pop	af
   010B C9            [10]  246 	ret
                            247 ;src/systems/collision.c:38: u8 collision_check_player_enemy(Enemy* enemy) {
                            248 ;	---------------------------------
                            249 ; Function collision_check_player_enemy
                            250 ; ---------------------------------
   010C                     251 _collision_check_player_enemy::
   010C DD E5         [15]  252 	push	ix
   010E DD 21 00 00   [14]  253 	ld	ix,#0
   0112 DD 39         [15]  254 	add	ix,sp
   0114 21 FA FF      [10]  255 	ld	hl, #-6
   0117 39            [11]  256 	add	hl, sp
   0118 F9            [ 6]  257 	ld	sp, hl
                            258 ;src/systems/collision.c:39: return (player.x < enemy->x + enemy->width &&
   0119 21r00r00      [10]  259 	ld	hl, #_player + 0
   011C 4E            [ 7]  260 	ld	c, (hl)
   011D DD 7E 04      [19]  261 	ld	a, 4 (ix)
   0120 DD 77 FE      [19]  262 	ld	-2 (ix), a
   0123 DD 7E 05      [19]  263 	ld	a, 5 (ix)
   0126 DD 77 FF      [19]  264 	ld	-1 (ix), a
   0129 DD 6E FE      [19]  265 	ld	l,-2 (ix)
   012C DD 66 FF      [19]  266 	ld	h,-1 (ix)
   012F 46            [ 7]  267 	ld	b, (hl)
   0130 DD 70 FC      [19]  268 	ld	-4 (ix), b
   0133 DD 36 FD 00   [19]  269 	ld	-3 (ix), #0x00
   0137 DD 6E FE      [19]  270 	ld	l,-2 (ix)
   013A DD 66 FF      [19]  271 	ld	h,-1 (ix)
   013D 23            [ 6]  272 	inc	hl
   013E 23            [ 6]  273 	inc	hl
   013F 5E            [ 7]  274 	ld	e, (hl)
   0140 16 00         [ 7]  275 	ld	d, #0x00
   0142 DD 6E FC      [19]  276 	ld	l,-4 (ix)
   0145 DD 66 FD      [19]  277 	ld	h,-3 (ix)
   0148 19            [11]  278 	add	hl, de
   0149 DD 71 FA      [19]  279 	ld	-6 (ix), c
   014C DD 36 FB 00   [19]  280 	ld	-5 (ix), #0x00
   0150 DD 7E FA      [19]  281 	ld	a, -6 (ix)
   0153 95            [ 4]  282 	sub	a, l
   0154 DD 7E FB      [19]  283 	ld	a, -5 (ix)
   0157 9C            [ 4]  284 	sbc	a, h
   0158 E2r5Dr01      [10]  285 	jp	PO, 00122$
   015B EE 80         [ 7]  286 	xor	a, #0x80
   015D                     287 00122$:
   015D F2r14r02      [10]  288 	jp	P, 00103$
                            289 ;src/systems/collision.c:40: player.x + player.width > enemy->x &&
   0160 21r02r00      [10]  290 	ld	hl, #_player + 2
   0163 4E            [ 7]  291 	ld	c, (hl)
   0164 06 00         [ 7]  292 	ld	b, #0x00
   0166 E1            [10]  293 	pop	hl
   0167 E5            [11]  294 	push	hl
   0168 09            [11]  295 	add	hl, bc
   0169 DD 7E FC      [19]  296 	ld	a, -4 (ix)
   016C 95            [ 4]  297 	sub	a, l
   016D DD 7E FD      [19]  298 	ld	a, -3 (ix)
   0170 9C            [ 4]  299 	sbc	a, h
   0171 E2r76r01      [10]  300 	jp	PO, 00123$
   0174 EE 80         [ 7]  301 	xor	a, #0x80
   0176                     302 00123$:
   0176 F2r14r02      [10]  303 	jp	P, 00103$
                            304 ;src/systems/collision.c:41: player.y < enemy->y + enemy->height &&
   0179 3Ar01r00      [13]  305 	ld	a,(#_player + 1)
   017C DD 77 FA      [19]  306 	ld	-6 (ix), a
   017F DD 7E FE      [19]  307 	ld	a, -2 (ix)
   0182 DD 77 FC      [19]  308 	ld	-4 (ix), a
   0185 DD 7E FF      [19]  309 	ld	a, -1 (ix)
   0188 DD 77 FD      [19]  310 	ld	-3 (ix), a
   018B DD 6E FC      [19]  311 	ld	l,-4 (ix)
   018E DD 66 FD      [19]  312 	ld	h,-3 (ix)
   0191 23            [ 6]  313 	inc	hl
   0192 7E            [ 7]  314 	ld	a, (hl)
   0193 DD 77 FC      [19]  315 	ld	-4 (ix), a
   0196 DD 77 FC      [19]  316 	ld	-4 (ix), a
   0199 DD 36 FD 00   [19]  317 	ld	-3 (ix), #0x00
   019D DD 6E FE      [19]  318 	ld	l,-2 (ix)
   01A0 DD 66 FF      [19]  319 	ld	h,-1 (ix)
   01A3 23            [ 6]  320 	inc	hl
   01A4 23            [ 6]  321 	inc	hl
   01A5 23            [ 6]  322 	inc	hl
   01A6 7E            [ 7]  323 	ld	a, (hl)
   01A7 DD 77 FE      [19]  324 	ld	-2 (ix), a
   01AA DD 77 FE      [19]  325 	ld	-2 (ix), a
   01AD DD 36 FF 00   [19]  326 	ld	-1 (ix), #0x00
   01B1 DD 7E FC      [19]  327 	ld	a, -4 (ix)
   01B4 DD 86 FE      [19]  328 	add	a, -2 (ix)
   01B7 DD 77 FE      [19]  329 	ld	-2 (ix), a
   01BA DD 7E FD      [19]  330 	ld	a, -3 (ix)
   01BD DD 8E FF      [19]  331 	adc	a, -1 (ix)
   01C0 DD 77 FF      [19]  332 	ld	-1 (ix), a
   01C3 DD 7E FA      [19]  333 	ld	a, -6 (ix)
   01C6 DD 77 FA      [19]  334 	ld	-6 (ix), a
   01C9 DD 36 FB 00   [19]  335 	ld	-5 (ix), #0x00
   01CD DD 7E FA      [19]  336 	ld	a, -6 (ix)
   01D0 DD 96 FE      [19]  337 	sub	a, -2 (ix)
   01D3 DD 7E FB      [19]  338 	ld	a, -5 (ix)
   01D6 DD 9E FF      [19]  339 	sbc	a, -1 (ix)
   01D9 E2rDEr01      [10]  340 	jp	PO, 00124$
   01DC EE 80         [ 7]  341 	xor	a, #0x80
   01DE                     342 00124$:
   01DE F2r14r02      [10]  343 	jp	P, 00103$
                            344 ;src/systems/collision.c:42: player.y + player.height > enemy->y);
   01E1 3Ar03r00      [13]  345 	ld	a,(#_player + 3)
   01E4 DD 77 FE      [19]  346 	ld	-2 (ix), a
   01E7 DD 77 FE      [19]  347 	ld	-2 (ix), a
   01EA DD 36 FF 00   [19]  348 	ld	-1 (ix), #0x00
   01EE DD 7E FA      [19]  349 	ld	a, -6 (ix)
   01F1 DD 86 FE      [19]  350 	add	a, -2 (ix)
   01F4 DD 77 FA      [19]  351 	ld	-6 (ix), a
   01F7 DD 7E FB      [19]  352 	ld	a, -5 (ix)
   01FA DD 8E FF      [19]  353 	adc	a, -1 (ix)
   01FD DD 77 FB      [19]  354 	ld	-5 (ix), a
   0200 DD 7E FC      [19]  355 	ld	a, -4 (ix)
   0203 DD 96 FA      [19]  356 	sub	a, -6 (ix)
   0206 DD 7E FD      [19]  357 	ld	a, -3 (ix)
   0209 DD 9E FB      [19]  358 	sbc	a, -5 (ix)
   020C E2r11r02      [10]  359 	jp	PO, 00125$
   020F EE 80         [ 7]  360 	xor	a, #0x80
   0211                     361 00125$:
   0211 FAr18r02      [10]  362 	jp	M, 00104$
   0214                     363 00103$:
   0214 2E 00         [ 7]  364 	ld	l, #0x00
   0216 18 02         [12]  365 	jr	00105$
   0218                     366 00104$:
   0218 2E 01         [ 7]  367 	ld	l, #0x01
   021A                     368 00105$:
   021A DD F9         [10]  369 	ld	sp, ix
   021C DD E1         [14]  370 	pop	ix
   021E C9            [10]  371 	ret
                            372 ;src/systems/collision.c:45: u8 collision_check_projectile_enemy(Projectile* projectile, Enemy* enemy) {
                            373 ;	---------------------------------
                            374 ; Function collision_check_projectile_enemy
                            375 ; ---------------------------------
   021F                     376 _collision_check_projectile_enemy::
   021F DD E5         [15]  377 	push	ix
   0221 DD 21 00 00   [14]  378 	ld	ix,#0
   0225 DD 39         [15]  379 	add	ix,sp
   0227 21 F8 FF      [10]  380 	ld	hl, #-8
   022A 39            [11]  381 	add	hl, sp
   022B F9            [ 6]  382 	ld	sp, hl
                            383 ;src/systems/collision.c:46: return (projectile->x < enemy->x + enemy->width &&
   022C DD 7E 04      [19]  384 	ld	a, 4 (ix)
   022F DD 77 FE      [19]  385 	ld	-2 (ix), a
   0232 DD 7E 05      [19]  386 	ld	a, 5 (ix)
   0235 DD 77 FF      [19]  387 	ld	-1 (ix), a
   0238 DD 6E FE      [19]  388 	ld	l,-2 (ix)
   023B DD 66 FF      [19]  389 	ld	h,-1 (ix)
   023E 4E            [ 7]  390 	ld	c, (hl)
   023F DD 7E 06      [19]  391 	ld	a, 6 (ix)
   0242 DD 77 FA      [19]  392 	ld	-6 (ix), a
   0245 DD 7E 07      [19]  393 	ld	a, 7 (ix)
   0248 DD 77 FB      [19]  394 	ld	-5 (ix), a
   024B DD 6E FA      [19]  395 	ld	l,-6 (ix)
   024E DD 66 FB      [19]  396 	ld	h,-5 (ix)
   0251 46            [ 7]  397 	ld	b, (hl)
   0252 DD 70 F8      [19]  398 	ld	-8 (ix), b
   0255 DD 36 F9 00   [19]  399 	ld	-7 (ix), #0x00
   0259 D1            [10]  400 	pop	de
   025A E1            [10]  401 	pop	hl
   025B E5            [11]  402 	push	hl
   025C D5            [11]  403 	push	de
   025D 23            [ 6]  404 	inc	hl
   025E 23            [ 6]  405 	inc	hl
   025F 5E            [ 7]  406 	ld	e, (hl)
   0260 16 00         [ 7]  407 	ld	d, #0x00
   0262 E1            [10]  408 	pop	hl
   0263 E5            [11]  409 	push	hl
   0264 19            [11]  410 	add	hl, de
   0265 DD 71 FC      [19]  411 	ld	-4 (ix), c
   0268 DD 36 FD 00   [19]  412 	ld	-3 (ix), #0x00
   026C DD 7E FC      [19]  413 	ld	a, -4 (ix)
   026F 95            [ 4]  414 	sub	a, l
   0270 DD 7E FD      [19]  415 	ld	a, -3 (ix)
   0273 9C            [ 4]  416 	sbc	a, h
   0274 E2r79r02      [10]  417 	jp	PO, 00122$
   0277 EE 80         [ 7]  418 	xor	a, #0x80
   0279                     419 00122$:
   0279 F2r5Cr03      [10]  420 	jp	P, 00103$
                            421 ;src/systems/collision.c:47: projectile->x + projectile->width > enemy->x &&
   027C DD 6E FE      [19]  422 	ld	l,-2 (ix)
   027F DD 66 FF      [19]  423 	ld	h,-1 (ix)
   0282 11 04 00      [10]  424 	ld	de, #0x0004
   0285 19            [11]  425 	add	hl, de
   0286 4E            [ 7]  426 	ld	c, (hl)
   0287 06 00         [ 7]  427 	ld	b, #0x00
   0289 DD 6E FC      [19]  428 	ld	l,-4 (ix)
   028C DD 66 FD      [19]  429 	ld	h,-3 (ix)
   028F 09            [11]  430 	add	hl, bc
   0290 DD 7E F8      [19]  431 	ld	a, -8 (ix)
   0293 95            [ 4]  432 	sub	a, l
   0294 DD 7E F9      [19]  433 	ld	a, -7 (ix)
   0297 9C            [ 4]  434 	sbc	a, h
   0298 E2r9Dr02      [10]  435 	jp	PO, 00123$
   029B EE 80         [ 7]  436 	xor	a, #0x80
   029D                     437 00123$:
   029D F2r5Cr03      [10]  438 	jp	P, 00103$
                            439 ;src/systems/collision.c:48: projectile->y < enemy->y + enemy->height &&
   02A0 DD 7E FE      [19]  440 	ld	a, -2 (ix)
   02A3 DD 77 FC      [19]  441 	ld	-4 (ix), a
   02A6 DD 7E FF      [19]  442 	ld	a, -1 (ix)
   02A9 DD 77 FD      [19]  443 	ld	-3 (ix), a
   02AC DD 6E FC      [19]  444 	ld	l,-4 (ix)
   02AF DD 66 FD      [19]  445 	ld	h,-3 (ix)
   02B2 23            [ 6]  446 	inc	hl
   02B3 7E            [ 7]  447 	ld	a, (hl)
   02B4 DD 77 FC      [19]  448 	ld	-4 (ix), a
   02B7 DD 7E FA      [19]  449 	ld	a, -6 (ix)
   02BA DD 77 F8      [19]  450 	ld	-8 (ix), a
   02BD DD 7E FB      [19]  451 	ld	a, -5 (ix)
   02C0 DD 77 F9      [19]  452 	ld	-7 (ix), a
   02C3 E1            [10]  453 	pop	hl
   02C4 E5            [11]  454 	push	hl
   02C5 23            [ 6]  455 	inc	hl
   02C6 7E            [ 7]  456 	ld	a, (hl)
   02C7 DD 77 F8      [19]  457 	ld	-8 (ix), a
   02CA DD 77 F8      [19]  458 	ld	-8 (ix), a
   02CD DD 36 F9 00   [19]  459 	ld	-7 (ix), #0x00
   02D1 DD 6E FA      [19]  460 	ld	l,-6 (ix)
   02D4 DD 66 FB      [19]  461 	ld	h,-5 (ix)
   02D7 23            [ 6]  462 	inc	hl
   02D8 23            [ 6]  463 	inc	hl
   02D9 23            [ 6]  464 	inc	hl
   02DA 7E            [ 7]  465 	ld	a, (hl)
   02DB DD 77 FA      [19]  466 	ld	-6 (ix), a
   02DE DD 77 FA      [19]  467 	ld	-6 (ix), a
   02E1 DD 36 FB 00   [19]  468 	ld	-5 (ix), #0x00
   02E5 DD 7E F8      [19]  469 	ld	a, -8 (ix)
   02E8 DD 86 FA      [19]  470 	add	a, -6 (ix)
   02EB DD 77 FA      [19]  471 	ld	-6 (ix), a
   02EE DD 7E F9      [19]  472 	ld	a, -7 (ix)
   02F1 DD 8E FB      [19]  473 	adc	a, -5 (ix)
   02F4 DD 77 FB      [19]  474 	ld	-5 (ix), a
   02F7 DD 7E FC      [19]  475 	ld	a, -4 (ix)
   02FA DD 77 FC      [19]  476 	ld	-4 (ix), a
   02FD DD 36 FD 00   [19]  477 	ld	-3 (ix), #0x00
   0301 DD 7E FC      [19]  478 	ld	a, -4 (ix)
   0304 DD 96 FA      [19]  479 	sub	a, -6 (ix)
   0307 DD 7E FD      [19]  480 	ld	a, -3 (ix)
   030A DD 9E FB      [19]  481 	sbc	a, -5 (ix)
   030D E2r12r03      [10]  482 	jp	PO, 00124$
   0310 EE 80         [ 7]  483 	xor	a, #0x80
   0312                     484 00124$:
   0312 F2r5Cr03      [10]  485 	jp	P, 00103$
                            486 ;src/systems/collision.c:49: projectile->y + projectile->height > enemy->y);
   0315 DD 7E FE      [19]  487 	ld	a, -2 (ix)
   0318 DD 77 FA      [19]  488 	ld	-6 (ix), a
   031B DD 7E FF      [19]  489 	ld	a, -1 (ix)
   031E DD 77 FB      [19]  490 	ld	-5 (ix), a
   0321 DD 6E FA      [19]  491 	ld	l,-6 (ix)
   0324 DD 66 FB      [19]  492 	ld	h,-5 (ix)
   0327 11 05 00      [10]  493 	ld	de, #0x0005
   032A 19            [11]  494 	add	hl, de
   032B 7E            [ 7]  495 	ld	a, (hl)
   032C DD 77 FA      [19]  496 	ld	-6 (ix), a
   032F DD 77 FA      [19]  497 	ld	-6 (ix), a
   0332 DD 36 FB 00   [19]  498 	ld	-5 (ix), #0x00
   0336 DD 7E FC      [19]  499 	ld	a, -4 (ix)
   0339 DD 86 FA      [19]  500 	add	a, -6 (ix)
   033C DD 77 FC      [19]  501 	ld	-4 (ix), a
   033F DD 7E FD      [19]  502 	ld	a, -3 (ix)
   0342 DD 8E FB      [19]  503 	adc	a, -5 (ix)
   0345 DD 77 FD      [19]  504 	ld	-3 (ix), a
   0348 DD 7E F8      [19]  505 	ld	a, -8 (ix)
   034B DD 96 FC      [19]  506 	sub	a, -4 (ix)
   034E DD 7E F9      [19]  507 	ld	a, -7 (ix)
   0351 DD 9E FD      [19]  508 	sbc	a, -3 (ix)
   0354 E2r59r03      [10]  509 	jp	PO, 00125$
   0357 EE 80         [ 7]  510 	xor	a, #0x80
   0359                     511 00125$:
   0359 FAr62r03      [10]  512 	jp	M, 00104$
   035C                     513 00103$:
   035C DD 36 FC 00   [19]  514 	ld	-4 (ix), #0x00
   0360 18 04         [12]  515 	jr	00105$
   0362                     516 00104$:
   0362 DD 36 FC 01   [19]  517 	ld	-4 (ix), #0x01
   0366                     518 00105$:
   0366 DD 6E FC      [19]  519 	ld	l, -4 (ix)
   0369 DD F9         [10]  520 	ld	sp, ix
   036B DD E1         [14]  521 	pop	ix
   036D C9            [10]  522 	ret
                            523 	.area _CODE
                            524 	.area _INITIALIZER
                            525 	.area _CABS (ABS)
