                              1 ;--------------------------------------------------------
                              2 ; File Created by SDCC : free open source ANSI-C Compiler
                              3 ; Version 3.6.8 #9946 (Mac OS X ppc)
                              4 ;--------------------------------------------------------
                              5 	.module player
                              6 	.optsdcc -mz80
                              7 	
                              8 ;--------------------------------------------------------
                              9 ; Public variables in this module
                             10 ;--------------------------------------------------------
                             11 	.globl _collision_clamp_y_to_ground
                             12 	.globl _collision_is_on_ground
                             13 	.globl _input_is_jump_pressed
                             14 	.globl _input_is_right_pressed
                             15 	.globl _input_is_left_pressed
                             16 	.globl _cpct_getScreenPtr
                             17 	.globl _cpct_drawSolidBox
                             18 	.globl _playerinit
                             19 	.globl _playerupdate
                             20 	.globl _playerrender
                             21 ;--------------------------------------------------------
                             22 ; special function registers
                             23 ;--------------------------------------------------------
                             24 ;--------------------------------------------------------
                             25 ; ram data
                             26 ;--------------------------------------------------------
                             27 	.area _DATA
                             28 ;--------------------------------------------------------
                             29 ; ram data
                             30 ;--------------------------------------------------------
                             31 	.area _INITIALIZED
                             32 ;--------------------------------------------------------
                             33 ; absolute external ram data
                             34 ;--------------------------------------------------------
                             35 	.area _DABS (ABS)
                             36 ;--------------------------------------------------------
                             37 ; global & static initialisations
                             38 ;--------------------------------------------------------
                             39 	.area _HOME
                             40 	.area _GSINIT
                             41 	.area _GSFINAL
                             42 	.area _GSINIT
                             43 ;--------------------------------------------------------
                             44 ; Home
                             45 ;--------------------------------------------------------
                             46 	.area _HOME
                             47 	.area _HOME
                             48 ;--------------------------------------------------------
                             49 ; code
                             50 ;--------------------------------------------------------
                             51 	.area _CODE
                             52 ;src/entities/player.c:10: void playerinit(Player* player) {
                             53 ;	---------------------------------
                             54 ; Function playerinit
                             55 ; ---------------------------------
   0000                      56 _playerinit::
                             57 ;src/entities/player.c:11: if (!player) {
   0000 21 03 00      [10]   58 	ld	hl, #2+1
   0003 39            [11]   59 	add	hl, sp
   0004 7E            [ 7]   60 	ld	a, (hl)
   0005 2B            [ 6]   61 	dec	hl
   0006 B6            [ 7]   62 	or	a,(hl)
                             63 ;src/entities/player.c:12: return;
   0007 C8            [11]   64 	ret	Z
                             65 ;src/entities/player.c:15: player->x = 20;
   0008 D1            [10]   66 	pop	de
   0009 C1            [10]   67 	pop	bc
   000A C5            [11]   68 	push	bc
   000B D5            [11]   69 	push	de
   000C 3E 14         [ 7]   70 	ld	a, #0x14
   000E 02            [ 7]   71 	ld	(bc), a
                             72 ;src/entities/player.c:16: player->y = 120;
   000F 69            [ 4]   73 	ld	l, c
   0010 60            [ 4]   74 	ld	h, b
   0011 23            [ 6]   75 	inc	hl
   0012 36 78         [10]   76 	ld	(hl), #0x78
                             77 ;src/entities/player.c:17: player->vx = 0;
   0014 59            [ 4]   78 	ld	e, c
   0015 50            [ 4]   79 	ld	d, b
   0016 13            [ 6]   80 	inc	de
   0017 13            [ 6]   81 	inc	de
   0018 AF            [ 4]   82 	xor	a, a
   0019 12            [ 7]   83 	ld	(de), a
                             84 ;src/entities/player.c:18: player->vy = 0;
   001A 59            [ 4]   85 	ld	e, c
   001B 50            [ 4]   86 	ld	d, b
   001C 13            [ 6]   87 	inc	de
   001D 13            [ 6]   88 	inc	de
   001E 13            [ 6]   89 	inc	de
   001F AF            [ 4]   90 	xor	a, a
   0020 12            [ 7]   91 	ld	(de), a
                             92 ;src/entities/player.c:19: player->w = 4;
   0021 21 04 00      [10]   93 	ld	hl, #0x0004
   0024 09            [11]   94 	add	hl, bc
   0025 36 04         [10]   95 	ld	(hl), #0x04
                             96 ;src/entities/player.c:20: player->h = 16;
   0027 21 05 00      [10]   97 	ld	hl, #0x0005
   002A 09            [11]   98 	add	hl, bc
   002B 36 10         [10]   99 	ld	(hl), #0x10
   002D C9            [10]  100 	ret
   002E                     101 _kplayermovespeed:
   002E 02                  102 	.db #0x02	;  2
   002F                     103 _kplayergravity:
   002F 01                  104 	.db #0x01	;  1
   0030                     105 _kplayerjumpvelocity:
   0030 FB                  106 	.db #0xfb	; -5
                            107 ;src/entities/player.c:23: void playerupdate(Player* player) {
                            108 ;	---------------------------------
                            109 ; Function playerupdate
                            110 ; ---------------------------------
   0031                     111 _playerupdate::
   0031 DD E5         [15]  112 	push	ix
   0033 DD 21 00 00   [14]  113 	ld	ix,#0
   0037 DD 39         [15]  114 	add	ix,sp
   0039 21 F8 FF      [10]  115 	ld	hl, #-8
   003C 39            [11]  116 	add	hl, sp
   003D F9            [ 6]  117 	ld	sp, hl
                            118 ;src/entities/player.c:27: if (!player) {
   003E DD 7E 05      [19]  119 	ld	a, 5 (ix)
   0041 DD B6 04      [19]  120 	or	a,4 (ix)
                            121 ;src/entities/player.c:28: return;
   0044 CAr6Er01      [10]  122 	jp	Z,00120$
                            123 ;src/entities/player.c:31: player->vx = 0;
   0047 DD 7E 04      [19]  124 	ld	a, 4 (ix)
   004A DD 77 FE      [19]  125 	ld	-2 (ix), a
   004D DD 7E 05      [19]  126 	ld	a, 5 (ix)
   0050 DD 77 FF      [19]  127 	ld	-1 (ix), a
   0053 DD 7E FE      [19]  128 	ld	a, -2 (ix)
   0056 C6 02         [ 7]  129 	add	a, #0x02
   0058 DD 77 FC      [19]  130 	ld	-4 (ix), a
   005B DD 7E FF      [19]  131 	ld	a, -1 (ix)
   005E CE 00         [ 7]  132 	adc	a, #0x00
   0060 DD 77 FD      [19]  133 	ld	-3 (ix), a
   0063 DD 6E FC      [19]  134 	ld	l,-4 (ix)
   0066 DD 66 FD      [19]  135 	ld	h,-3 (ix)
   0069 36 00         [10]  136 	ld	(hl), #0x00
                            137 ;src/entities/player.c:32: if (input_is_left_pressed()) {
   006B CDr00r00      [17]  138 	call	_input_is_left_pressed
   006E 7D            [ 4]  139 	ld	a, l
   006F B7            [ 4]  140 	or	a, a
   0070 28 10         [12]  141 	jr	Z,00106$
                            142 ;src/entities/player.c:33: player->vx = (i8)(-kplayermovespeed);
   0072 21r2Er00      [10]  143 	ld	hl,#_kplayermovespeed + 0
   0075 4E            [ 7]  144 	ld	c, (hl)
   0076 AF            [ 4]  145 	xor	a, a
   0077 91            [ 4]  146 	sub	a, c
   0078 4F            [ 4]  147 	ld	c, a
   0079 DD 6E FC      [19]  148 	ld	l,-4 (ix)
   007C DD 66 FD      [19]  149 	ld	h,-3 (ix)
   007F 71            [ 7]  150 	ld	(hl), c
   0080 18 12         [12]  151 	jr	00107$
   0082                     152 00106$:
                            153 ;src/entities/player.c:34: } else if (input_is_right_pressed()) {
   0082 CDr00r00      [17]  154 	call	_input_is_right_pressed
   0085 7D            [ 4]  155 	ld	a, l
   0086 B7            [ 4]  156 	or	a, a
   0087 28 0B         [12]  157 	jr	Z,00107$
                            158 ;src/entities/player.c:35: player->vx = kplayermovespeed;
   0089 21r2Er00      [10]  159 	ld	hl,#_kplayermovespeed + 0
   008C 4E            [ 7]  160 	ld	c, (hl)
   008D DD 6E FC      [19]  161 	ld	l,-4 (ix)
   0090 DD 66 FD      [19]  162 	ld	h,-3 (ix)
   0093 71            [ 7]  163 	ld	(hl), c
   0094                     164 00107$:
                            165 ;src/entities/player.c:38: if (input_is_jump_pressed() && collision_is_on_ground((i16)player->y, player->h)) {
   0094 CDr00r00      [17]  166 	call	_input_is_jump_pressed
   0097 DD 7E FE      [19]  167 	ld	a, -2 (ix)
   009A C6 05         [ 7]  168 	add	a, #0x05
   009C DD 77 FA      [19]  169 	ld	-6 (ix), a
   009F DD 7E FF      [19]  170 	ld	a, -1 (ix)
   00A2 CE 00         [ 7]  171 	adc	a, #0x00
   00A4 DD 77 FB      [19]  172 	ld	-5 (ix), a
   00A7 DD 7E FE      [19]  173 	ld	a, -2 (ix)
   00AA C6 01         [ 7]  174 	add	a, #0x01
   00AC DD 77 F8      [19]  175 	ld	-8 (ix), a
   00AF DD 7E FF      [19]  176 	ld	a, -1 (ix)
   00B2 CE 00         [ 7]  177 	adc	a, #0x00
   00B4 DD 77 F9      [19]  178 	ld	-7 (ix), a
                            179 ;src/entities/player.c:39: player->vy = kplayerjumpvelocity;
   00B7 DD 5E FE      [19]  180 	ld	e,-2 (ix)
   00BA DD 56 FF      [19]  181 	ld	d,-1 (ix)
   00BD 13            [ 6]  182 	inc	de
   00BE 13            [ 6]  183 	inc	de
   00BF 13            [ 6]  184 	inc	de
                            185 ;src/entities/player.c:38: if (input_is_jump_pressed() && collision_is_on_ground((i16)player->y, player->h)) {
   00C0 7D            [ 4]  186 	ld	a, l
   00C1 B7            [ 4]  187 	or	a, a
   00C2 28 1E         [12]  188 	jr	Z,00109$
   00C4 DD 6E FA      [19]  189 	ld	l,-6 (ix)
   00C7 DD 66 FB      [19]  190 	ld	h,-5 (ix)
   00CA 7E            [ 7]  191 	ld	a, (hl)
   00CB E1            [10]  192 	pop	hl
   00CC E5            [11]  193 	push	hl
   00CD 4E            [ 7]  194 	ld	c, (hl)
   00CE 06 00         [ 7]  195 	ld	b, #0x00
   00D0 D5            [11]  196 	push	de
   00D1 F5            [11]  197 	push	af
   00D2 33            [ 6]  198 	inc	sp
   00D3 C5            [11]  199 	push	bc
   00D4 CDr00r00      [17]  200 	call	_collision_is_on_ground
   00D7 F1            [10]  201 	pop	af
   00D8 33            [ 6]  202 	inc	sp
   00D9 D1            [10]  203 	pop	de
   00DA 7D            [ 4]  204 	ld	a, l
   00DB B7            [ 4]  205 	or	a, a
   00DC 28 04         [12]  206 	jr	Z,00109$
                            207 ;src/entities/player.c:39: player->vy = kplayerjumpvelocity;
   00DE 3Ar30r00      [13]  208 	ld	a,(#_kplayerjumpvelocity + 0)
   00E1 12            [ 7]  209 	ld	(de), a
   00E2                     210 00109$:
                            211 ;src/entities/player.c:42: player->vy = (i8)(player->vy + kplayergravity);
   00E2 1A            [ 7]  212 	ld	a, (de)
   00E3 4F            [ 4]  213 	ld	c, a
   00E4 21r2Fr00      [10]  214 	ld	hl,#_kplayergravity + 0
   00E7 46            [ 7]  215 	ld	b, (hl)
   00E8 79            [ 4]  216 	ld	a, c
   00E9 80            [ 4]  217 	add	a, b
   00EA 12            [ 7]  218 	ld	(de), a
                            219 ;src/entities/player.c:44: nextx = (i16)player->x + (i16)player->vx;
   00EB DD 6E FE      [19]  220 	ld	l,-2 (ix)
   00EE DD 66 FF      [19]  221 	ld	h,-1 (ix)
   00F1 4E            [ 7]  222 	ld	c, (hl)
   00F2 06 00         [ 7]  223 	ld	b, #0x00
   00F4 DD 6E FC      [19]  224 	ld	l,-4 (ix)
   00F7 DD 66 FD      [19]  225 	ld	h,-3 (ix)
   00FA 6E            [ 7]  226 	ld	l, (hl)
   00FB 7D            [ 4]  227 	ld	a, l
   00FC 17            [ 4]  228 	rla
   00FD 9F            [ 4]  229 	sbc	a, a
   00FE 67            [ 4]  230 	ld	h, a
   00FF 09            [11]  231 	add	hl, bc
                            232 ;src/entities/player.c:45: if (nextx < 0) {
   0100 CB 7C         [ 8]  233 	bit	7, h
   0102 28 03         [12]  234 	jr	Z,00112$
                            235 ;src/entities/player.c:46: nextx = 0;
   0104 21 00 00      [10]  236 	ld	hl, #0x0000
   0107                     237 00112$:
                            238 ;src/entities/player.c:48: if (nextx > 76) {
   0107 3E 4C         [ 7]  239 	ld	a, #0x4c
   0109 BD            [ 4]  240 	cp	a, l
   010A 3E 00         [ 7]  241 	ld	a, #0x00
   010C 9C            [ 4]  242 	sbc	a, h
   010D E2r12r01      [10]  243 	jp	PO, 00162$
   0110 EE 80         [ 7]  244 	xor	a, #0x80
   0112                     245 00162$:
   0112 F2r18r01      [10]  246 	jp	P, 00114$
                            247 ;src/entities/player.c:49: nextx = 76;
   0115 21 4C 00      [10]  248 	ld	hl, #0x004c
   0118                     249 00114$:
                            250 ;src/entities/player.c:51: player->x = (u8)nextx;
   0118 4D            [ 4]  251 	ld	c, l
   0119 DD 6E FE      [19]  252 	ld	l,-2 (ix)
   011C DD 66 FF      [19]  253 	ld	h,-1 (ix)
   011F 71            [ 7]  254 	ld	(hl), c
                            255 ;src/entities/player.c:53: nexty = (i16)player->y + (i16)player->vy;
   0120 E1            [10]  256 	pop	hl
   0121 E5            [11]  257 	push	hl
   0122 4E            [ 7]  258 	ld	c, (hl)
   0123 06 00         [ 7]  259 	ld	b, #0x00
   0125 1A            [ 7]  260 	ld	a, (de)
   0126 6F            [ 4]  261 	ld	l, a
   0127 17            [ 4]  262 	rla
   0128 9F            [ 4]  263 	sbc	a, a
   0129 67            [ 4]  264 	ld	h, a
   012A 09            [11]  265 	add	hl,bc
   012B 4D            [ 4]  266 	ld	c, l
   012C 44            [ 4]  267 	ld	b, h
                            268 ;src/entities/player.c:54: nexty = collision_clamp_y_to_ground(nexty, player->h);
   012D DD 6E FA      [19]  269 	ld	l,-6 (ix)
   0130 DD 66 FB      [19]  270 	ld	h,-5 (ix)
   0133 66            [ 7]  271 	ld	h, (hl)
   0134 D5            [11]  272 	push	de
   0135 E5            [11]  273 	push	hl
   0136 33            [ 6]  274 	inc	sp
   0137 C5            [11]  275 	push	bc
   0138 CDr00r00      [17]  276 	call	_collision_clamp_y_to_ground
   013B F1            [10]  277 	pop	af
   013C 33            [ 6]  278 	inc	sp
   013D D1            [10]  279 	pop	de
                            280 ;src/entities/player.c:55: if (nexty < 0) {
   013E CB 7C         [ 8]  281 	bit	7, h
   0140 28 03         [12]  282 	jr	Z,00116$
                            283 ;src/entities/player.c:56: nexty = 0;
   0142 21 00 00      [10]  284 	ld	hl, #0x0000
   0145                     285 00116$:
                            286 ;src/entities/player.c:58: player->y = (u8)nexty;
   0145 4D            [ 4]  287 	ld	c, l
   0146 E1            [10]  288 	pop	hl
   0147 E5            [11]  289 	push	hl
   0148 71            [ 7]  290 	ld	(hl), c
                            291 ;src/entities/player.c:60: if (collision_is_on_ground((i16)player->y, player->h) && player->vy > 0) {
   0149 DD 6E FA      [19]  292 	ld	l,-6 (ix)
   014C DD 66 FB      [19]  293 	ld	h,-5 (ix)
   014F 66            [ 7]  294 	ld	h, (hl)
   0150 06 00         [ 7]  295 	ld	b, #0x00
   0152 D5            [11]  296 	push	de
   0153 E5            [11]  297 	push	hl
   0154 33            [ 6]  298 	inc	sp
   0155 C5            [11]  299 	push	bc
   0156 CDr00r00      [17]  300 	call	_collision_is_on_ground
   0159 F1            [10]  301 	pop	af
   015A 33            [ 6]  302 	inc	sp
   015B D1            [10]  303 	pop	de
   015C 7D            [ 4]  304 	ld	a, l
   015D B7            [ 4]  305 	or	a, a
   015E 28 0E         [12]  306 	jr	Z,00120$
   0160 1A            [ 7]  307 	ld	a, (de)
   0161 4F            [ 4]  308 	ld	c, a
   0162 AF            [ 4]  309 	xor	a, a
   0163 91            [ 4]  310 	sub	a, c
   0164 E2r69r01      [10]  311 	jp	PO, 00163$
   0167 EE 80         [ 7]  312 	xor	a, #0x80
   0169                     313 00163$:
   0169 F2r6Er01      [10]  314 	jp	P, 00120$
                            315 ;src/entities/player.c:61: player->vy = 0;
   016C AF            [ 4]  316 	xor	a, a
   016D 12            [ 7]  317 	ld	(de), a
   016E                     318 00120$:
   016E DD F9         [10]  319 	ld	sp, ix
   0170 DD E1         [14]  320 	pop	ix
   0172 C9            [10]  321 	ret
                            322 ;src/entities/player.c:65: void playerrender(const Player* player) {
                            323 ;	---------------------------------
                            324 ; Function playerrender
                            325 ; ---------------------------------
   0173                     326 _playerrender::
   0173 DD E5         [15]  327 	push	ix
   0175 DD 21 00 00   [14]  328 	ld	ix,#0
   0179 DD 39         [15]  329 	add	ix,sp
                            330 ;src/entities/player.c:68: if (!player) {
   017B DD 7E 05      [19]  331 	ld	a, 5 (ix)
   017E DD B6 04      [19]  332 	or	a,4 (ix)
                            333 ;src/entities/player.c:69: return;
   0181 28 32         [12]  334 	jr	Z,00103$
                            335 ;src/entities/player.c:72: pvmem = cpct_getScreenPtr(CPCT_VMEM_START, player->x, player->y);
   0183 DD 5E 04      [19]  336 	ld	e,4 (ix)
   0186 DD 56 05      [19]  337 	ld	d,5 (ix)
   0189 6B            [ 4]  338 	ld	l, e
   018A 62            [ 4]  339 	ld	h, d
   018B 23            [ 6]  340 	inc	hl
   018C 46            [ 7]  341 	ld	b, (hl)
   018D 1A            [ 7]  342 	ld	a, (de)
   018E D5            [11]  343 	push	de
   018F C5            [11]  344 	push	bc
   0190 33            [ 6]  345 	inc	sp
   0191 F5            [11]  346 	push	af
   0192 33            [ 6]  347 	inc	sp
   0193 21 00 C0      [10]  348 	ld	hl, #0xc000
   0196 E5            [11]  349 	push	hl
   0197 CDr00r00      [17]  350 	call	_cpct_getScreenPtr
   019A 4D            [ 4]  351 	ld	c, l
   019B 44            [ 4]  352 	ld	b, h
   019C D1            [10]  353 	pop	de
                            354 ;src/entities/player.c:73: cpct_drawSolidBox(pvmem, 0x4F, player->w, player->h);
   019D D5            [11]  355 	push	de
   019E FD E1         [14]  356 	pop	iy
   01A0 FD 7E 05      [19]  357 	ld	a, 5 (iy)
   01A3 EB            [ 4]  358 	ex	de,hl
   01A4 11 04 00      [10]  359 	ld	de, #0x0004
   01A7 19            [11]  360 	add	hl, de
   01A8 56            [ 7]  361 	ld	d, (hl)
   01A9 F5            [11]  362 	push	af
   01AA 33            [ 6]  363 	inc	sp
   01AB 1E 4F         [ 7]  364 	ld	e, #0x4f
   01AD D5            [11]  365 	push	de
   01AE C5            [11]  366 	push	bc
   01AF CDr00r00      [17]  367 	call	_cpct_drawSolidBox
   01B2 F1            [10]  368 	pop	af
   01B3 F1            [10]  369 	pop	af
   01B4 33            [ 6]  370 	inc	sp
   01B5                     371 00103$:
   01B5 DD E1         [14]  372 	pop	ix
   01B7 C9            [10]  373 	ret
                            374 	.area _CODE
                            375 	.area _INITIALIZER
                            376 	.area _CABS (ABS)
